
servoTestSoftware.elf:     file format elf32-avr

Sections:
Idx Name          Size      VMA       LMA       File off  Algn
  0 .text         00001358  00000000  00000000  00000074  2**1
                  CONTENTS, ALLOC, LOAD, READONLY, CODE
  1 .bss          00000005  00800060  00800060  000013cc  2**0
                  ALLOC
  2 .debug_aranges 00000080  00000000  00000000  000013cc  2**0
                  CONTENTS, READONLY, DEBUGGING
  3 .debug_pubnames 00000335  00000000  00000000  0000144c  2**0
                  CONTENTS, READONLY, DEBUGGING
  4 .debug_info   00001884  00000000  00000000  00001781  2**0
                  CONTENTS, READONLY, DEBUGGING
  5 .debug_abbrev 000006e9  00000000  00000000  00003005  2**0
                  CONTENTS, READONLY, DEBUGGING
  6 .debug_line   00000e1a  00000000  00000000  000036ee  2**0
                  CONTENTS, READONLY, DEBUGGING
  7 .debug_frame  00000260  00000000  00000000  00004508  2**2
                  CONTENTS, READONLY, DEBUGGING
  8 .debug_str    00000540  00000000  00000000  00004768  2**0
                  CONTENTS, READONLY, DEBUGGING
  9 .debug_loc    000010e0  00000000  00000000  00004ca8  2**0
                  CONTENTS, READONLY, DEBUGGING
 10 .debug_ranges 00000068  00000000  00000000  00005d88  2**0
                  CONTENTS, READONLY, DEBUGGING

Disassembly of section .text:

00000000 <__vectors>:
       0:	0c 94 3e 03 	jmp	0x67c	; 0x67c <__ctors_end>
       4:	0c 94 50 03 	jmp	0x6a0	; 0x6a0 <__bad_interrupt>
       8:	0c 94 50 03 	jmp	0x6a0	; 0x6a0 <__bad_interrupt>
       c:	0c 94 50 03 	jmp	0x6a0	; 0x6a0 <__bad_interrupt>
      10:	0c 94 50 03 	jmp	0x6a0	; 0x6a0 <__bad_interrupt>
      14:	0c 94 50 03 	jmp	0x6a0	; 0x6a0 <__bad_interrupt>
      18:	0c 94 50 03 	jmp	0x6a0	; 0x6a0 <__bad_interrupt>
      1c:	0c 94 50 03 	jmp	0x6a0	; 0x6a0 <__bad_interrupt>
      20:	0c 94 50 03 	jmp	0x6a0	; 0x6a0 <__bad_interrupt>
      24:	0c 94 50 03 	jmp	0x6a0	; 0x6a0 <__bad_interrupt>
      28:	0c 94 50 03 	jmp	0x6a0	; 0x6a0 <__bad_interrupt>
      2c:	0c 94 50 03 	jmp	0x6a0	; 0x6a0 <__bad_interrupt>
      30:	0c 94 50 03 	jmp	0x6a0	; 0x6a0 <__bad_interrupt>
      34:	0c 94 50 03 	jmp	0x6a0	; 0x6a0 <__bad_interrupt>
      38:	0c 94 50 03 	jmp	0x6a0	; 0x6a0 <__bad_interrupt>
      3c:	0c 94 50 03 	jmp	0x6a0	; 0x6a0 <__bad_interrupt>
      40:	0c 94 72 05 	jmp	0xae4	; 0xae4 <__vector_16>
      44:	0c 94 50 03 	jmp	0x6a0	; 0x6a0 <__bad_interrupt>
      48:	0c 94 50 03 	jmp	0x6a0	; 0x6a0 <__bad_interrupt>
      4c:	0c 94 50 03 	jmp	0x6a0	; 0x6a0 <__bad_interrupt>
      50:	0c 94 50 03 	jmp	0x6a0	; 0x6a0 <__bad_interrupt>

00000054 <__c.1870>:
      54:	50 57 4d 20 57 65 72 74 3a 20 00                    PWM Wert: .

0000005f <__c.1868>:
      5f:	70 6f 73 28 70 61 67 65 2f 63 6f 6c 75 6d 6e 29     pos(page/column)
      6f:	3a 20 00                                            : .

00000072 <font_fixed_8px_data>:
      72:	00 00 00 00 00 00 00 3e 45 51 45 3e 00 3e 6b 6f     .......>EQE>.>ko
      82:	6b 3e 00 1c 3e 7c 3e 1c 00 18 3c 7e 3c 18 00 30     k>..>|>...<~<..0
      92:	36 7f 36 30 00 18 5c 7e 5c 18 00 00 00 00 00 00     6.60..\~\.......
	...
      b2:	00 00 00 30 48 4a 36 0e 00 06 29 79 29 06 00 00     ...0HJ6...)y)...
      c2:	00 00 00 00 00 60 7e 0a 35 3f 00 2a 1c 36 1c 2a     .....`~.5?.*.6.*
      d2:	00 00 7f 3e 1c 08 00 08 1c 3e 7f 00 00 14 36 7f     ...>.....>....6.
      e2:	36 14 00 00 5f 00 5f 00 00 06 09 7f 01 7f 00 22     6..._._........"
      f2:	4d 55 59 22 00 60 60 60 60 00 00 14 b6 ff b6 14     MUY".````.......
     102:	00 04 06 7f 06 04 00 10 30 7f 30 10 00 08 08 3e     ........0.0....>
     112:	1c 08 00 08 1c 3e 08 08 00 78 40 40 40 40 00 08     .....>...x@@@@..
     122:	3e 08 3e 08 00 30 3c 3f 3c 30 00 03 0f 3f 0f 03     >.>..0<?<0...?..
	...
     13a:	06 5f 06 00 00 07 03 00 07 03 00 24 7e 24 7e 24     ._.........$~$~$
     14a:	00 24 2b 6a 12 00 00 63 13 08 64 63 00 36 49 56     .$+j...c..dc.6IV
     15a:	20 50 00 00 07 03 00 00 00 00 3e 41 00 00 00 00      P........>A....
     16a:	41 3e 00 00 00 08 3e 1c 3e 08 00 08 08 3e 08 08     A>....>.>....>..
     17a:	00 00 e0 60 00 00 00 08 08 08 08 08 00 00 60 60     ...`..........``
     18a:	00 00 00 20 10 08 04 02 00 3e 51 49 45 3e 00 00     ... .....>QIE>..
     19a:	42 7f 40 00 00 62 51 49 49 46 00 22 49 49 49 36     B.@..bQIIF."III6
     1aa:	00 18 14 12 7f 10 00 2f 49 49 49 31 00 3c 4a 49     ......./III1.<JI
     1ba:	49 30 00 01 71 09 05 03 00 36 49 49 49 36 00 06     I0..q....6III6..
     1ca:	49 49 29 1e 00 00 6c 6c 00 00 00 00 ec 6c 00 00     II)...ll.....l..
     1da:	00 08 14 22 41 00 00 24 24 24 24 24 00 00 41 22     ..."A..$$$$$..A"
     1ea:	14 08 00 02 01 59 09 06 00 3e 41 5d 55 1e 00 7e     .....Y...>A]U..~
     1fa:	11 11 11 7e 00 7f 49 49 49 36 00 3e 41 41 41 22     ...~..III6.>AAA"
     20a:	00 7f 41 41 41 3e 00 7f 49 49 49 41 00 7f 09 09     ..AAA>..IIIA....
     21a:	09 01 00 3e 41 49 49 7a 00 7f 08 08 08 7f 00 00     ...>AIIz........
     22a:	41 7f 41 00 00 30 40 40 40 3f 00 7f 08 14 22 41     A.A..0@@@?...."A
     23a:	00 7f 40 40 40 40 00 7f 02 04 02 7f 00 7f 02 04     ..@@@@..........
     24a:	08 7f 00 3e 41 41 41 3e 00 7f 09 09 09 06 00 3e     ...>AAA>.......>
     25a:	41 51 21 5e 00 7f 09 09 19 66 00 26 49 49 49 32     AQ!^.....f.&III2
     26a:	00 01 01 7f 01 01 00 3f 40 40 40 3f 00 1f 20 40     .......?@@@?.. @
     27a:	20 1f 00 3f 40 3c 40 3f 00 63 14 08 14 63 00 07      ..?@<@?.c...c..
     28a:	08 70 08 07 00 71 49 45 43 00 00 00 7f 41 41 00     .p...qIEC....AA.
     29a:	00 02 04 08 10 20 00 00 41 41 7f 00 00 04 02 01     ..... ..AA......
     2aa:	02 04 80 80 80 80 80 80 00 00 03 07 00 00 00 20     ............... 
     2ba:	54 54 54 78 00 7f 44 44 44 38 00 38 44 44 44 28     TTTx..DDD8.8DDD(
     2ca:	00 38 44 44 44 7f 00 38 54 54 54 08 00 08 7e 09     .8DDD..8TTT...~.
     2da:	09 00 00 18 a4 a4 a4 7c 00 7f 04 04 78 00 00 00     .......|....x...
     2ea:	00 7d 40 00 00 40 80 84 7d 00 00 7f 10 28 44 00     .}@..@..}....(D.
     2fa:	00 00 00 7f 40 00 00 7c 04 18 04 78 00 7c 04 04     ....@..|...x.|..
     30a:	78 00 00 38 44 44 44 38 00 fc 44 44 44 38 00 38     x..8DDD8..DDD8.8
     31a:	44 44 44 fc 00 44 78 44 04 08 00 08 54 54 54 20     DDD..DxD....TTT 
     32a:	00 04 3e 44 24 00 00 3c 40 20 7c 00 00 1c 20 40     ..>D$..<@ |... @
     33a:	20 1c 00 3c 60 30 60 3c 00 6c 10 10 6c 00 00 9c      ..<`0`<.l..l...
     34a:	a0 60 3c 00 00 64 54 54 4c 00 00 08 3e 41 41 00     .`<..dTTL...>AA.
     35a:	00 00 00 77 00 00 00 00 41 41 3e 08 00 02 01 02     ...w....AA>.....
     36a:	01 00 00 3c 26 23 26 3c 00 1e a1 e1 21 12 00 3d     ...<&#&<....!..=
     37a:	40 20 7d 00 00 38 54 54 55 09 00 20 55 55 55 78     @ }..8TTU.. UUUx
     38a:	00 20 55 54 55 78 00 20 55 55 54 78 00 20 57 55     . UTUx. UUTx. WU
     39a:	57 78 00 1c a2 e2 22 14 00 38 55 55 55 08 00 38     Wx...."..8UUU..8
     3aa:	55 54 55 08 00 38 55 55 54 08 00 00 01 7c 41 00     UTU..8UUT....|A.
     3ba:	00 00 01 7d 41 00 00 00 01 7c 40 00 00 70 29 24     ...}A....|@..p)$
     3ca:	29 70 00 78 2f 25 2f 78 00 7c 54 54 55 45 00 34     )p.x/%/x.|TTUE.4
     3da:	54 7c 54 58 00 7e 09 7f 49 49 00 38 45 45 39 00     T|TX.~..II.8EE9.
     3ea:	00 38 45 44 39 00 00 39 45 44 38 00 00 3c 41 21     .8ED9..9ED8..<A!
     3fa:	7d 00 00 3d 41 20 7c 00 00 9c a1 60 3d 00 00 3d     }..=A |....`=..=
     40a:	42 42 3d 00 00 3c 41 40 3d 00 80 70 68 58 38 04     BB=..<A@=..phX8.
     41a:	00 48 3e 49 49 62 00 7e 61 5d 43 3f 00 22 14 08     .H>IIb.~a]C?."..
     42a:	14 22 00 40 88 7e 09 02 00 20 54 55 55 78 00 00     .".@.~... TUUx..
     43a:	00 7d 41 00 00 38 44 45 39 00 00 3c 40 21 7d 00     .}A..8DE9..<@!}.
     44a:	00 7a 09 0a 71 00 00 7a 11 22 79 00 00 08 55 55     .z..q..z."y...UU
     45a:	55 5e 00 4e 51 51 4e 00 00 30 48 4d 40 20 3e 41     U^.NQQN..0HM@ >A
     46a:	5d 4b 55 3e 04 04 04 04 04 1c 00 17 08 4c 6a 50     ]KU>.........LjP
     47a:	00 17 08 34 2a 78 00 00 30 7d 30 00 00 08 14 00     ...4*x..0}0.....
     48a:	08 14 00 14 08 00 14 08 44 11 44 11 44 11 aa 55     ........D.D.D..U
     49a:	aa 55 aa 55 bb ee bb ee bb ee 00 00 00 ff 00 00     .U.U............
     4aa:	08 08 08 ff 00 00 00 70 28 25 29 70 00 70 29 25     .......p(%)p.p)%
     4ba:	29 70 00 70 29 25 28 70 3e 41 5d 55 41 3e 0a fb     )p.p)%(p>A]UA>..
     4ca:	00 ff 00 00 00 ff 00 ff 00 00 0a fa 02 fe 00 00     ................
     4da:	0a 0b 08 0f 00 00 00 18 24 66 24 00 00 29 2a 7c     ........$f$..)*|
     4ea:	2a 29 08 08 08 f8 00 00 00 00 00 0f 08 08 08 08     *)..............
     4fa:	08 0f 08 08 08 08 08 f8 08 08 00 00 00 ff 08 08     ................
     50a:	08 08 08 08 08 08 08 08 08 ff 08 08 00 20 56 55     ............. VU
     51a:	56 79 00 70 2a 25 2a 71 00 0f 08 0b 0a 0a 00 fe     Vy.p*%*q........
     52a:	02 fa 0a 0a 0a 0b 08 0b 0a 0a 0a fa 02 fa 0a 0a     ................
     53a:	00 ff 00 fb 0a 0a 0a 0a 0a 0a 0a 0a 0a fb 00 fb     ................
     54a:	0a 0a 00 5d 22 22 22 5d 00 22 55 59 30 00 00 08     ...]"""]."UY0...
     55a:	7f 49 41 3e 00 7c 55 55 55 44 00 7c 55 54 55 44     .IA>.|UUUD.|UTUD
     56a:	00 7c 55 55 54 44 00 00 00 07 00 00 00 00 44 7d     .|UUTD........D}
     57a:	45 00 00 00 45 7d 45 00 00 00 45 7c 45 00 08 08     E...E}E...E|E...
     58a:	08 0f 00 00 00 00 00 f8 08 08 ff ff ff ff ff ff     ................
     59a:	f0 f0 f0 f0 f0 f0 00 00 00 77 00 00 00 00 45 7d     .........w....E}
     5aa:	44 00 0f 0f 0f 0f 0f 0f 00 3c 42 43 3d 00 00 fe     D........<BC=...
     5ba:	4a 4a 34 00 00 3c 43 43 3d 00 00 3d 43 42 3c 00     JJ4..<CC=..=CB<.
     5ca:	00 32 49 4a 31 00 00 3a 45 46 39 00 00 fc 20 20     .2IJ1..:EF9...  
     5da:	1c 00 00 fe aa 28 10 00 00 ff a5 24 18 00 00 3c     .....(.....$...<
     5ea:	40 41 3d 00 00 3c 41 41 3d 00 00 3d 41 40 3c 00     @A=..<AA=..=A@<.
     5fa:	00 9c a0 61 3d 00 00 04 08 71 09 04 00 00 02 02     ...a=....q......
     60a:	02 00 00 00 07 03 00 00 00 00 08 08 08 00 00 00     ................
     61a:	24 2e 24 00 00 24 24 24 24 24 05 17 0a 34 2a 78     $.$..$$$$$...4*x
     62a:	00 06 09 7f 01 7f 00 22 4d 55 59 22 00 08 08 2a     ......."MUY"...*
     63a:	08 08 00 00 08 18 18 00 00 06 09 09 06 00 00 00     ................
     64a:	08 00 08 00 00 00 08 00 00 00 00 02 0f 00 00 00     ................
     65a:	00 09 0f 05 00 00 00 09 0d 0a 00 00 00 3c 3c 3c     .............<<<
     66a:	3c 00 00 00 00 00 00 00                             <.......

00000672 <font_fixed_8px>:
     672:	00 06 06 08 00 ff 00 00 72 00                       ........r.

0000067c <__ctors_end>:
     67c:	11 24       	eor	r1, r1
     67e:	1f be       	out	0x3f, r1	; 63
     680:	cf e5       	ldi	r28, 0x5F	; 95
     682:	d8 e0       	ldi	r29, 0x08	; 8
     684:	de bf       	out	0x3e, r29	; 62
     686:	cd bf       	out	0x3d, r28	; 61

00000688 <__do_clear_bss>:
     688:	10 e0       	ldi	r17, 0x00	; 0
     68a:	a0 e6       	ldi	r26, 0x60	; 96
     68c:	b0 e0       	ldi	r27, 0x00	; 0
     68e:	01 c0       	rjmp	.+2      	; 0x692 <.do_clear_bss_start>

00000690 <.do_clear_bss_loop>:
     690:	1d 92       	st	X+, r1

00000692 <.do_clear_bss_start>:
     692:	a5 36       	cpi	r26, 0x65	; 101
     694:	b1 07       	cpc	r27, r17
     696:	e1 f7       	brne	.-8      	; 0x690 <.do_clear_bss_loop>
     698:	0e 94 81 05 	call	0xb02	; 0xb02 <main>
     69c:	0c 94 aa 09 	jmp	0x1354	; 0x1354 <_exit>

000006a0 <__bad_interrupt>:
     6a0:	0c 94 00 00 	jmp	0	; 0x0 <__vectors>

000006a4 <lcd_inc_page>:
/******************************************************************************
 * Changes the internal cursor by s pages
 * s             - number of pages to move
 */ 
uint8_t lcd_inc_page(int8_t s) {
  uint8_t p = lcd_current_page;
     6a4:	90 91 60 00 	lds	r25, 0x0060
  p += s;
     6a8:	98 0f       	add	r25, r24
  p %= LCD_RAM_PAGES;    //all lcd have lcd_ram_pages which is power of two
     6aa:	93 70       	andi	r25, 0x03	; 3
  lcd_current_page = p;
     6ac:	90 93 60 00 	sts	0x0060, r25
  return p;
  }
     6b0:	89 2f       	mov	r24, r25
     6b2:	08 95       	ret

000006b4 <lcd_inc_column>:

/******************************************************************************
 * Changes the internal cursor by s columns, including wrapping (if selected)
 * s             - number of columns to move
 */ 
uint8_t lcd_inc_column(int16_t s) {
     6b4:	ac 01       	movw	r20, r24
  uint16_t c = lcd_current_column;
     6b6:	80 91 61 00 	lds	r24, 0x0061
  c += s;
     6ba:	9a 01       	movw	r18, r20
     6bc:	28 0f       	add	r18, r24
     6be:	31 1d       	adc	r19, r1
     6c0:	80 91 60 00 	lds	r24, 0x0060
     6c4:	0c c0       	rjmp	.+24     	; 0x6de <lcd_inc_column+0x2a>
#if LCD_WRAP_AROUND == 1
  while (c >= LCD_WIDTH) {
    if (s > 0) lcd_inc_page(1);
     6c6:	14 16       	cp	r1, r20
     6c8:	15 06       	cpc	r1, r21
     6ca:	2c f4       	brge	.+10     	; 0x6d6 <lcd_inc_column+0x22>
 * Changes the internal cursor by s pages
 * s             - number of pages to move
 */ 
uint8_t lcd_inc_page(int8_t s) {
  uint8_t p = lcd_current_page;
  p += s;
     6cc:	8f 5f       	subi	r24, 0xFF	; 255
  p %= LCD_RAM_PAGES;    //all lcd have lcd_ram_pages which is power of two
     6ce:	83 70       	andi	r24, 0x03	; 3
  c += s;
#if LCD_WRAP_AROUND == 1
  while (c >= LCD_WIDTH) {
    if (s > 0) lcd_inc_page(1);
    else       lcd_inc_page(-1);
    if (s > 0) c -= LCD_WIDTH;
     6d0:	24 58       	subi	r18, 0x84	; 132
     6d2:	30 40       	sbci	r19, 0x00	; 0
     6d4:	04 c0       	rjmp	.+8      	; 0x6de <lcd_inc_column+0x2a>
 * Changes the internal cursor by s pages
 * s             - number of pages to move
 */ 
uint8_t lcd_inc_page(int8_t s) {
  uint8_t p = lcd_current_page;
  p += s;
     6d6:	81 50       	subi	r24, 0x01	; 1
  p %= LCD_RAM_PAGES;    //all lcd have lcd_ram_pages which is power of two
     6d8:	83 70       	andi	r24, 0x03	; 3
#if LCD_WRAP_AROUND == 1
  while (c >= LCD_WIDTH) {
    if (s > 0) lcd_inc_page(1);
    else       lcd_inc_page(-1);
    if (s > 0) c -= LCD_WIDTH;
    else       c += LCD_WIDTH;
     6da:	2c 57       	subi	r18, 0x7C	; 124
     6dc:	3f 4f       	sbci	r19, 0xFF	; 255
 */ 
uint8_t lcd_inc_column(int16_t s) {
  uint16_t c = lcd_current_column;
  c += s;
#if LCD_WRAP_AROUND == 1
  while (c >= LCD_WIDTH) {
     6de:	24 38       	cpi	r18, 0x84	; 132
     6e0:	31 05       	cpc	r19, r1
     6e2:	88 f7       	brcc	.-30     	; 0x6c6 <lcd_inc_column+0x12>
     6e4:	80 93 60 00 	sts	0x0060, r24
    else       lcd_inc_page(-1);
    if (s > 0) c -= LCD_WIDTH;
    else       c += LCD_WIDTH;
    }
#endif
  lcd_current_column = c;
     6e8:	20 93 61 00 	sts	0x0061, r18
  return c;
  }
     6ec:	82 2f       	mov	r24, r18
     6ee:	08 95       	ret

000006f0 <lcd_data>:
/******************************************************************************
 * Writes one data byte
 * data          - the data byte
 */
void lcd_data(uint8_t data) {
  LCD_SELECT();
     6f0:	c4 98       	cbi	0x18, 4	; 24
  LCD_DRAM();
     6f2:	dd 9a       	sbi	0x1b, 5	; 27
  spi_write(data);
     6f4:	8f b9       	out	0x0f, r24	; 15
  LCD_UNSELECT();
     6f6:	77 9b       	sbis	0x0e, 7	; 14
     6f8:	fe cf       	rjmp	.-4      	; 0x6f6 <lcd_data+0x6>
     6fa:	c4 9a       	sbi	0x18, 4	; 24
  lcd_inc_column(1);
     6fc:	81 e0       	ldi	r24, 0x01	; 1
     6fe:	90 e0       	ldi	r25, 0x00	; 0
     700:	0e 94 5a 03 	call	0x6b4	; 0x6b4 <lcd_inc_column>
  }
     704:	08 95       	ret

00000706 <lcd_command>:
/******************************************************************************
 * Writes one command byte
 * cmd           - the command byte
 */
void lcd_command(uint8_t cmd) {
  LCD_SELECT();
     706:	c4 98       	cbi	0x18, 4	; 24
  LCD_CMD();
     708:	dd 98       	cbi	0x1b, 5	; 27
   
  spi_write(cmd);
     70a:	8f b9       	out	0x0f, r24	; 15
  
  
  //LCD_UNSELECT();
  while(!(SPSR & (1<<SPIF)));
     70c:	77 9b       	sbis	0x0e, 7	; 14
     70e:	fe cf       	rjmp	.-4      	; 0x70c <lcd_command+0x6>
  PORT_CS |= _BV(PIN_CS);
     710:	c4 9a       	sbi	0x18, 4	; 24
  }
     712:	08 95       	ret

00000714 <lcd_moveto_xy>:
/******************************************************************************
 * Moves the cursor to the given position
 * pages         - page to move to
 * columns       - column to move to
 */ 
void lcd_moveto_xy(uint8_t page, uint8_t column) {
     714:	0f 93       	push	r16
     716:	1f 93       	push	r17
     718:	08 2f       	mov	r16, r24
     71a:	16 2f       	mov	r17, r22
  LCD_GOTO_ADDRESS(page,column);
     71c:	8f 70       	andi	r24, 0x0F	; 15
     71e:	80 6b       	ori	r24, 0xB0	; 176
     720:	0e 94 83 03 	call	0x706	; 0x706 <lcd_command>
     724:	81 2f       	mov	r24, r17
     726:	82 95       	swap	r24
     728:	8f 70       	andi	r24, 0x0F	; 15
     72a:	80 61       	ori	r24, 0x10	; 16
     72c:	0e 94 83 03 	call	0x706	; 0x706 <lcd_command>
     730:	81 2f       	mov	r24, r17
     732:	8f 70       	andi	r24, 0x0F	; 15
     734:	0e 94 83 03 	call	0x706	; 0x706 <lcd_command>
  lcd_current_column = column; 
     738:	10 93 61 00 	sts	0x0061, r17
  lcd_current_page = page;
     73c:	00 93 60 00 	sts	0x0060, r16
  }
     740:	1f 91       	pop	r17
     742:	0f 91       	pop	r16
     744:	08 95       	ret

00000746 <lcd_move_xy>:
/******************************************************************************
 * Moves the cursor relative to the current position
 * pages         - number of pages to move
 * columns       - number of columns to move
 */  
void lcd_move_xy(int8_t pages, int16_t columns) {
     746:	1f 93       	push	r17
/******************************************************************************
 * Changes the internal cursor by s pages
 * s             - number of pages to move
 */ 
uint8_t lcd_inc_page(int8_t s) {
  uint8_t p = lcd_current_page;
     748:	10 91 60 00 	lds	r17, 0x0060
  p += s;
     74c:	18 0f       	add	r17, r24
  p %= LCD_RAM_PAGES;    //all lcd have lcd_ram_pages which is power of two
     74e:	13 70       	andi	r17, 0x03	; 3
  lcd_current_page = p;
     750:	10 93 60 00 	sts	0x0060, r17
 * Moves the cursor relative to the current position
 * pages         - number of pages to move
 * columns       - number of columns to move
 */  
void lcd_move_xy(int8_t pages, int16_t columns) {
  lcd_moveto_xy(lcd_inc_page(pages),lcd_inc_column(columns));
     754:	cb 01       	movw	r24, r22
     756:	0e 94 5a 03 	call	0x6b4	; 0x6b4 <lcd_inc_column>
     75a:	68 2f       	mov	r22, r24
     75c:	81 2f       	mov	r24, r17
     75e:	0e 94 8a 03 	call	0x714	; 0x714 <lcd_moveto_xy>
  }
     762:	1f 91       	pop	r17
     764:	08 95       	ret

00000766 <lcd_draw_image_P>:
 * progmem_image - prog_uint8_t array of columns aka the bitmap image
 * pages         - height of image in pages
 * columns       - width of image in pixels (or columns)
 * style         - Bit2: sets inverse mode
 */  
void lcd_draw_image_P(PGM_P progmem_image, uint8_t pages, uint8_t columns, uint8_t style) {
     766:	bf 92       	push	r11
     768:	cf 92       	push	r12
     76a:	df 92       	push	r13
     76c:	ef 92       	push	r14
     76e:	ff 92       	push	r15
     770:	0f 93       	push	r16
     772:	1f 93       	push	r17
     774:	cf 93       	push	r28
     776:	df 93       	push	r29
     778:	08 2f       	mov	r16, r24
     77a:	e9 2f       	mov	r30, r25
     77c:	b6 2e       	mov	r11, r22
     77e:	e4 2e       	mov	r14, r20
     780:	f2 2e       	mov	r15, r18
	uint8_t i,j = 0;
  uint8_t inv = (style & INVERT_BIT);
     782:	24 e0       	ldi	r18, 0x04	; 4
     784:	f2 22       	and	r15, r18
     786:	10 e0       	ldi	r17, 0x00	; 0
				lcd_data(tmp);
			else
				lcd_data(~tmp);
      }
    if(++j != pages)
      lcd_move_xy(1,-columns);
     788:	84 2f       	mov	r24, r20
     78a:	90 e0       	ldi	r25, 0x00	; 0
     78c:	cc 24       	eor	r12, r12
     78e:	dd 24       	eor	r13, r13
     790:	c8 1a       	sub	r12, r24
     792:	d9 0a       	sbc	r13, r25
     794:	18 c0       	rjmp	.+48     	; 0x7c6 <lcd_draw_image_P+0x60>
void lcd_draw_image_P(PGM_P progmem_image, uint8_t pages, uint8_t columns, uint8_t style) {
	uint8_t i,j = 0;
  uint8_t inv = (style & INVERT_BIT);
	while(j<pages && (lcd_get_position_page() < LCD_RAM_PAGES)) {
		for (i=0; i<columns && (lcd_get_position_column() < LCD_WIDTH); i++) {
      uint8_t tmp = pgm_read_byte(progmem_image++);
     796:	fe 01       	movw	r30, r28
     798:	84 91       	lpm	r24, Z+
			if(!inv)
     79a:	f1 10       	cpse	r15, r1
				lcd_data(tmp);
			else
				lcd_data(~tmp);
     79c:	80 95       	com	r24
     79e:	0e 94 78 03 	call	0x6f0	; 0x6f0 <lcd_data>
void lcd_draw_image_P(PGM_P progmem_image, uint8_t pages, uint8_t columns, uint8_t style) {
	uint8_t i,j = 0;
  uint8_t inv = (style & INVERT_BIT);
	while(j<pages && (lcd_get_position_page() < LCD_RAM_PAGES)) {
		for (i=0; i<columns && (lcd_get_position_column() < LCD_WIDTH); i++) {
      uint8_t tmp = pgm_read_byte(progmem_image++);
     7a2:	21 96       	adiw	r28, 0x01	; 1
 */  
void lcd_draw_image_P(PGM_P progmem_image, uint8_t pages, uint8_t columns, uint8_t style) {
	uint8_t i,j = 0;
  uint8_t inv = (style & INVERT_BIT);
	while(j<pages && (lcd_get_position_page() < LCD_RAM_PAGES)) {
		for (i=0; i<columns && (lcd_get_position_column() < LCD_WIDTH); i++) {
     7a4:	9e 01       	movw	r18, r28
     7a6:	20 1b       	sub	r18, r16
     7a8:	2e 15       	cp	r18, r14
     7aa:	20 f4       	brcc	.+8      	; 0x7b4 <lcd_draw_image_P+0x4e>
     7ac:	80 91 61 00 	lds	r24, 0x0061
     7b0:	84 38       	cpi	r24, 0x84	; 132
     7b2:	88 f3       	brcs	.-30     	; 0x796 <lcd_draw_image_P+0x30>
			if(!inv)
				lcd_data(tmp);
			else
				lcd_data(~tmp);
      }
    if(++j != pages)
     7b4:	1f 5f       	subi	r17, 0xFF	; 255
     7b6:	1b 15       	cp	r17, r11
     7b8:	21 f0       	breq	.+8      	; 0x7c2 <lcd_draw_image_P+0x5c>
      lcd_move_xy(1,-columns);
     7ba:	81 e0       	ldi	r24, 0x01	; 1
     7bc:	b6 01       	movw	r22, r12
     7be:	0e 94 a3 03 	call	0x746	; 0x746 <lcd_move_xy>
     7c2:	0c 2f       	mov	r16, r28
     7c4:	ed 2f       	mov	r30, r29
 * style         - Bit2: sets inverse mode
 */  
void lcd_draw_image_P(PGM_P progmem_image, uint8_t pages, uint8_t columns, uint8_t style) {
	uint8_t i,j = 0;
  uint8_t inv = (style & INVERT_BIT);
	while(j<pages && (lcd_get_position_page() < LCD_RAM_PAGES)) {
     7c6:	1b 15       	cp	r17, r11
     7c8:	48 f4       	brcc	.+18     	; 0x7dc <lcd_draw_image_P+0x76>
     7ca:	80 91 60 00 	lds	r24, 0x0060
     7ce:	84 30       	cpi	r24, 0x04	; 4
     7d0:	28 f4       	brcc	.+10     	; 0x7dc <lcd_draw_image_P+0x76>
     7d2:	80 2f       	mov	r24, r16
     7d4:	9e 2f       	mov	r25, r30
     7d6:	fc 01       	movw	r30, r24
     7d8:	ef 01       	movw	r28, r30
     7da:	e4 cf       	rjmp	.-56     	; 0x7a4 <lcd_draw_image_P+0x3e>
				lcd_data(~tmp);
      }
    if(++j != pages)
      lcd_move_xy(1,-columns);
    }
  }
     7dc:	df 91       	pop	r29
     7de:	cf 91       	pop	r28
     7e0:	1f 91       	pop	r17
     7e2:	0f 91       	pop	r16
     7e4:	ff 90       	pop	r15
     7e6:	ef 90       	pop	r14
     7e8:	df 90       	pop	r13
     7ea:	cf 90       	pop	r12
     7ec:	bf 90       	pop	r11
     7ee:	08 95       	ret

000007f0 <lcd_draw_image_xy_P>:
 * y             - y start coordinate on the screen (in pixel)
 * pages         - height of image in pages
 * columns       - width of image in pixels
 * style         - Bit2: sets inverse mode
 */
void lcd_draw_image_xy_P(PGM_P progmem_image, uint8_t x, uint8_t y, uint8_t pages, uint8_t columns, uint8_t style) {
     7f0:	2f 92       	push	r2
     7f2:	3f 92       	push	r3
     7f4:	4f 92       	push	r4
     7f6:	5f 92       	push	r5
     7f8:	6f 92       	push	r6
     7fa:	7f 92       	push	r7
     7fc:	8f 92       	push	r8
     7fe:	9f 92       	push	r9
     800:	af 92       	push	r10
     802:	bf 92       	push	r11
     804:	cf 92       	push	r12
     806:	df 92       	push	r13
     808:	ef 92       	push	r14
     80a:	ff 92       	push	r15
     80c:	0f 93       	push	r16
     80e:	1f 93       	push	r17
     810:	df 93       	push	r29
     812:	cf 93       	push	r28
     814:	cd b7       	in	r28, 0x3d	; 61
     816:	de b7       	in	r29, 0x3e	; 62
     818:	28 97       	sbiw	r28, 0x08	; 8
     81a:	0f b6       	in	r0, 0x3f	; 63
     81c:	f8 94       	cli
     81e:	de bf       	out	0x3e, r29	; 62
     820:	0f be       	out	0x3f, r0	; 63
     822:	cd bf       	out	0x3d, r28	; 61
     824:	f8 2e       	mov	r15, r24
     826:	d9 2e       	mov	r13, r25
     828:	12 2f       	mov	r17, r18
     82a:	2e 2d       	mov	r18, r14
	uint16_t i,j;
  uint8_t data   = 0;
  uint8_t inv    = style & INVERT_BIT;
     82c:	24 70       	andi	r18, 0x04	; 4
     82e:	2a 83       	std	Y+2, r18	; 0x02
	uint8_t offset = y & 0x7; //Optimized modulo 8
     830:	84 2f       	mov	r24, r20
     832:	87 70       	andi	r24, 0x07	; 7
     834:	89 83       	std	Y+1, r24	; 0x01
	//If there is an offset, we must use an additional page
	if(offset)  
     836:	81 11       	cpse	r24, r1
    pages++;
     838:	1f 5f       	subi	r17, 0xFF	; 255


//Function to read the current position
extern uint8_t lcd_current_page;
extern uint8_t lcd_current_column;
static inline uint8_t lcd_get_position_page()   {return lcd_current_page;};
     83a:	50 91 60 00 	lds	r21, 0x0060
  //If there is not enough vertical space -> cut image
  if(pages > LCD_RAM_PAGES - lcd_get_position_page())   
     83e:	21 2f       	mov	r18, r17
     840:	30 e0       	ldi	r19, 0x00	; 0
     842:	84 e0       	ldi	r24, 0x04	; 4
     844:	90 e0       	ldi	r25, 0x00	; 0
     846:	85 1b       	sub	r24, r21
     848:	91 09       	sbc	r25, r1
     84a:	82 17       	cp	r24, r18
     84c:	93 07       	cpc	r25, r19
     84e:	14 f4       	brge	.+4      	; 0x854 <lcd_draw_image_xy_P+0x64>
    pages = LCD_RAM_PAGES - lcd_get_position_page();
     850:	14 e0       	ldi	r17, 0x04	; 4
     852:	15 1b       	sub	r17, r21
  //Goto starting point and draw
	lcd_moveto_xy((y>>3), x);
     854:	84 2f       	mov	r24, r20
     856:	86 95       	lsr	r24
     858:	86 95       	lsr	r24
     85a:	86 95       	lsr	r24
     85c:	0e 94 8a 03 	call	0x714	; 0x714 <lcd_moveto_xy>
     860:	80 2e       	mov	r8, r16
     862:	99 24       	eor	r9, r9
     864:	8f 2d       	mov	r24, r15
     866:	9d 2d       	mov	r25, r13
     868:	5c 01       	movw	r10, r24
     86a:	88 27       	eor	r24, r24
     86c:	99 27       	eor	r25, r25
     86e:	88 19       	sub	r24, r8
     870:	99 09       	sbc	r25, r9
     872:	15 01       	movw	r2, r10
     874:	28 0e       	add	r2, r24
     876:	39 1e       	adc	r3, r25
     878:	18 86       	std	Y+8, r1	; 0x08
     87a:	1f 82       	std	Y+7, r1	; 0x07
	for (j=0; j<pages; j++) {
     87c:	61 2e       	mov	r6, r17
     87e:	77 24       	eor	r7, r7
		for (i=0; i<columns && (lcd_get_position_column() < LCD_WIDTH); i++){
      data = 0;
      if (!offset || j+1 != pages)
        data = pgm_read_byte(&progmem_image[j*columns + i]) << offset;
			if(j > 0 && offset)
				data |= pgm_read_byte(&progmem_image[(j-1)*columns + i]) >> (8-offset);
     880:	28 e0       	ldi	r18, 0x08	; 8
     882:	42 2e       	mov	r4, r18
     884:	51 2c       	mov	r5, r1
     886:	e9 81       	ldd	r30, Y+1	; 0x01
     888:	4e 1a       	sub	r4, r30
     88a:	51 08       	sbc	r5, r1
			if(inv)	lcd_data(~data);
      else 		lcd_data(data);
		  }
		if(j+1 != pages)
			lcd_move_xy(1,-columns);
     88c:	8d 83       	std	Y+5, r24	; 0x05
     88e:	9e 83       	std	Y+6, r25	; 0x06
     890:	4c c0       	rjmp	.+152    	; 0x92a <__stack+0xcb>
  //Goto starting point and draw
	lcd_moveto_xy((y>>3), x);
	for (j=0; j<pages; j++) {
		for (i=0; i<columns && (lcd_get_position_column() < LCD_WIDTH); i++){
      data = 0;
      if (!offset || j+1 != pages)
     892:	f9 81       	ldd	r31, Y+1	; 0x01
     894:	ff 23       	and	r31, r31
     896:	39 f0       	breq	.+14     	; 0x8a6 <__stack+0x47>
     898:	8b 81       	ldd	r24, Y+3	; 0x03
     89a:	9c 81       	ldd	r25, Y+4	; 0x04
     89c:	86 15       	cp	r24, r6
     89e:	97 05       	cpc	r25, r7
     8a0:	11 f4       	brne	.+4      	; 0x8a6 <__stack+0x47>
     8a2:	20 e0       	ldi	r18, 0x00	; 0
     8a4:	07 c0       	rjmp	.+14     	; 0x8b4 <__stack+0x55>
        data = pgm_read_byte(&progmem_image[j*columns + i]) << offset;
     8a6:	f7 01       	movw	r30, r14
     8a8:	24 91       	lpm	r18, Z+
     8aa:	09 80       	ldd	r0, Y+1	; 0x01
     8ac:	01 c0       	rjmp	.+2      	; 0x8b0 <__stack+0x51>
     8ae:	22 0f       	add	r18, r18
     8b0:	0a 94       	dec	r0
     8b2:	ea f7       	brpl	.-6      	; 0x8ae <__stack+0x4f>
			if(j > 0 && offset)
     8b4:	8f 81       	ldd	r24, Y+7	; 0x07
     8b6:	98 85       	ldd	r25, Y+8	; 0x08
     8b8:	89 2b       	or	r24, r25
     8ba:	69 f0       	breq	.+26     	; 0x8d6 <__stack+0x77>
     8bc:	99 81       	ldd	r25, Y+1	; 0x01
     8be:	99 23       	and	r25, r25
     8c0:	51 f0       	breq	.+20     	; 0x8d6 <__stack+0x77>
				data |= pgm_read_byte(&progmem_image[(j-1)*columns + i]) >> (8-offset);
     8c2:	f6 01       	movw	r30, r12
     8c4:	84 91       	lpm	r24, Z+
     8c6:	90 e0       	ldi	r25, 0x00	; 0
     8c8:	04 2c       	mov	r0, r4
     8ca:	02 c0       	rjmp	.+4      	; 0x8d0 <__stack+0x71>
     8cc:	95 95       	asr	r25
     8ce:	87 95       	ror	r24
     8d0:	0a 94       	dec	r0
     8d2:	e2 f7       	brpl	.-8      	; 0x8cc <__stack+0x6d>
     8d4:	28 2b       	or	r18, r24
			if(inv)	lcd_data(~data);
     8d6:	fa 81       	ldd	r31, Y+2	; 0x02
     8d8:	ff 23       	and	r31, r31
     8da:	19 f0       	breq	.+6      	; 0x8e2 <__stack+0x83>
     8dc:	82 2f       	mov	r24, r18
     8de:	80 95       	com	r24
     8e0:	01 c0       	rjmp	.+2      	; 0x8e4 <__stack+0x85>
      else 		lcd_data(data);
     8e2:	82 2f       	mov	r24, r18
     8e4:	0e 94 78 03 	call	0x6f0	; 0x6f0 <lcd_data>
  if(pages > LCD_RAM_PAGES - lcd_get_position_page())   
    pages = LCD_RAM_PAGES - lcd_get_position_page();
  //Goto starting point and draw
	lcd_moveto_xy((y>>3), x);
	for (j=0; j<pages; j++) {
		for (i=0; i<columns && (lcd_get_position_column() < LCD_WIDTH); i++){
     8e8:	0f 5f       	subi	r16, 0xFF	; 255
     8ea:	1f 4f       	sbci	r17, 0xFF	; 255
     8ec:	08 94       	sec
     8ee:	c1 1c       	adc	r12, r1
     8f0:	d1 1c       	adc	r13, r1
     8f2:	08 94       	sec
     8f4:	e1 1c       	adc	r14, r1
     8f6:	f1 1c       	adc	r15, r1
     8f8:	08 15       	cp	r16, r8
     8fa:	19 05       	cpc	r17, r9
     8fc:	28 f4       	brcc	.+10     	; 0x908 <__stack+0xa9>
     8fe:	80 91 61 00 	lds	r24, 0x0061
     902:	84 38       	cpi	r24, 0x84	; 132
     904:	08 f4       	brcc	.+2      	; 0x908 <__stack+0xa9>
     906:	c5 cf       	rjmp	.-118    	; 0x892 <__stack+0x33>
			if(j > 0 && offset)
				data |= pgm_read_byte(&progmem_image[(j-1)*columns + i]) >> (8-offset);
			if(inv)	lcd_data(~data);
      else 		lcd_data(data);
		  }
		if(j+1 != pages)
     908:	8f 81       	ldd	r24, Y+7	; 0x07
     90a:	98 85       	ldd	r25, Y+8	; 0x08
     90c:	01 96       	adiw	r24, 0x01	; 1
     90e:	98 87       	std	Y+8, r25	; 0x08
     910:	8f 83       	std	Y+7, r24	; 0x07
     912:	86 15       	cp	r24, r6
     914:	97 05       	cpc	r25, r7
     916:	29 f0       	breq	.+10     	; 0x922 <__stack+0xc3>
			lcd_move_xy(1,-columns);
     918:	81 e0       	ldi	r24, 0x01	; 1
     91a:	6d 81       	ldd	r22, Y+5	; 0x05
     91c:	7e 81       	ldd	r23, Y+6	; 0x06
     91e:	0e 94 a3 03 	call	0x746	; 0x746 <lcd_move_xy>
     922:	a8 0c       	add	r10, r8
     924:	b9 1c       	adc	r11, r9
     926:	28 0c       	add	r2, r8
     928:	39 1c       	adc	r3, r9
  //If there is not enough vertical space -> cut image
  if(pages > LCD_RAM_PAGES - lcd_get_position_page())   
    pages = LCD_RAM_PAGES - lcd_get_position_page();
  //Goto starting point and draw
	lcd_moveto_xy((y>>3), x);
	for (j=0; j<pages; j++) {
     92a:	ef 81       	ldd	r30, Y+7	; 0x07
     92c:	f8 85       	ldd	r31, Y+8	; 0x08
     92e:	e6 15       	cp	r30, r6
     930:	f7 05       	cpc	r31, r7
     932:	40 f4       	brcc	.+16     	; 0x944 <__stack+0xe5>
     934:	61 01       	movw	r12, r2
     936:	75 01       	movw	r14, r10
     938:	00 e0       	ldi	r16, 0x00	; 0
     93a:	10 e0       	ldi	r17, 0x00	; 0
		for (i=0; i<columns && (lcd_get_position_column() < LCD_WIDTH); i++){
      data = 0;
      if (!offset || j+1 != pages)
     93c:	31 96       	adiw	r30, 0x01	; 1
     93e:	fc 83       	std	Y+4, r31	; 0x04
     940:	eb 83       	std	Y+3, r30	; 0x03
     942:	da cf       	rjmp	.-76     	; 0x8f8 <__stack+0x99>
      else 		lcd_data(data);
		  }
		if(j+1 != pages)
			lcd_move_xy(1,-columns);
	  }
  }
     944:	28 96       	adiw	r28, 0x08	; 8
     946:	0f b6       	in	r0, 0x3f	; 63
     948:	f8 94       	cli
     94a:	de bf       	out	0x3e, r29	; 62
     94c:	0f be       	out	0x3f, r0	; 63
     94e:	cd bf       	out	0x3d, r28	; 61
     950:	cf 91       	pop	r28
     952:	df 91       	pop	r29
     954:	1f 91       	pop	r17
     956:	0f 91       	pop	r16
     958:	ff 90       	pop	r15
     95a:	ef 90       	pop	r14
     95c:	df 90       	pop	r13
     95e:	cf 90       	pop	r12
     960:	bf 90       	pop	r11
     962:	af 90       	pop	r10
     964:	9f 90       	pop	r9
     966:	8f 90       	pop	r8
     968:	7f 90       	pop	r7
     96a:	6f 90       	pop	r6
     96c:	5f 90       	pop	r5
     96e:	4f 90       	pop	r4
     970:	3f 90       	pop	r3
     972:	2f 90       	pop	r2
     974:	08 95       	ret

00000976 <lcd_clear_area>:
 * pages         - height of area in pages
 * columns       - width of area in pixels
 * style         - Bit2: sets inverse mode
 * Cursor is moved to start of area after clear
 */
void lcd_clear_area(uint8_t pages, uint8_t columns, uint8_t style) {
     976:	df 92       	push	r13
     978:	ef 92       	push	r14
     97a:	ff 92       	push	r15
     97c:	0f 93       	push	r16
     97e:	1f 93       	push	r17
     980:	cf 93       	push	r28
     982:	df 93       	push	r29
     984:	38 2f       	mov	r19, r24
  uint8_t i,j,max;
  uint8_t inv = (style & INVERT_BIT)?0xFF:0;
     986:	42 fd       	sbrc	r20, 2
     988:	02 c0       	rjmp	.+4      	; 0x98e <lcd_clear_area+0x18>
     98a:	dd 24       	eor	r13, r13
     98c:	02 c0       	rjmp	.+4      	; 0x992 <lcd_clear_area+0x1c>
     98e:	dd 24       	eor	r13, r13
     990:	da 94       	dec	r13
     992:	24 e0       	ldi	r18, 0x04	; 4
     994:	80 91 60 00 	lds	r24, 0x0060
     998:	28 1b       	sub	r18, r24
     99a:	e3 2e       	mov	r14, r19
     99c:	23 17       	cp	r18, r19
     99e:	08 f4       	brcc	.+2      	; 0x9a2 <lcd_clear_area+0x2c>
     9a0:	e2 2e       	mov	r14, r18
     9a2:	24 e8       	ldi	r18, 0x84	; 132
     9a4:	80 91 61 00 	lds	r24, 0x0061
     9a8:	28 1b       	sub	r18, r24
     9aa:	06 2f       	mov	r16, r22
     9ac:	26 17       	cp	r18, r22
     9ae:	08 f4       	brcc	.+2      	; 0x9b2 <lcd_clear_area+0x3c>
     9b0:	02 2f       	mov	r16, r18
     9b2:	ff 24       	eor	r15, r15
  
  for(j=0; j<pages; j++) {
    for(i=0; i<columns; i++) {
      lcd_data(inv);
      }
    lcd_move_xy(1,-columns);
     9b4:	80 2f       	mov	r24, r16
     9b6:	90 e0       	ldi	r25, 0x00	; 0
     9b8:	cc 27       	eor	r28, r28
     9ba:	dd 27       	eor	r29, r29
     9bc:	c8 1b       	sub	r28, r24
     9be:	d9 0b       	sbc	r29, r25
     9c0:	0b c0       	rjmp	.+22     	; 0x9d8 <lcd_clear_area+0x62>
  if(columns > (max = LCD_WIDTH - lcd_get_position_column()))   
    columns = max;
  
  for(j=0; j<pages; j++) {
    for(i=0; i<columns; i++) {
      lcd_data(inv);
     9c2:	8d 2d       	mov	r24, r13
     9c4:	0e 94 78 03 	call	0x6f0	; 0x6f0 <lcd_data>
    pages = max;
  if(columns > (max = LCD_WIDTH - lcd_get_position_column()))   
    columns = max;
  
  for(j=0; j<pages; j++) {
    for(i=0; i<columns; i++) {
     9c8:	1f 5f       	subi	r17, 0xFF	; 255
     9ca:	10 17       	cp	r17, r16
     9cc:	d0 f3       	brcs	.-12     	; 0x9c2 <lcd_clear_area+0x4c>
      lcd_data(inv);
      }
    lcd_move_xy(1,-columns);
     9ce:	81 e0       	ldi	r24, 0x01	; 1
     9d0:	be 01       	movw	r22, r28
     9d2:	0e 94 a3 03 	call	0x746	; 0x746 <lcd_move_xy>
  if(pages > (max = LCD_RAM_PAGES - lcd_get_position_page()))   
    pages = max;
  if(columns > (max = LCD_WIDTH - lcd_get_position_column()))   
    columns = max;
  
  for(j=0; j<pages; j++) {
     9d6:	f3 94       	inc	r15
     9d8:	fe 14       	cp	r15, r14
     9da:	10 f4       	brcc	.+4      	; 0x9e0 <lcd_clear_area+0x6a>
     9dc:	10 e0       	ldi	r17, 0x00	; 0
     9de:	f5 cf       	rjmp	.-22     	; 0x9ca <lcd_clear_area+0x54>
    for(i=0; i<columns; i++) {
      lcd_data(inv);
      }
    lcd_move_xy(1,-columns);
    }
  lcd_move_xy(-pages,0);
     9e0:	8e 2d       	mov	r24, r14
     9e2:	81 95       	neg	r24
     9e4:	60 e0       	ldi	r22, 0x00	; 0
     9e6:	70 e0       	ldi	r23, 0x00	; 0
     9e8:	0e 94 a3 03 	call	0x746	; 0x746 <lcd_move_xy>
  }
     9ec:	df 91       	pop	r29
     9ee:	cf 91       	pop	r28
     9f0:	1f 91       	pop	r17
     9f2:	0f 91       	pop	r16
     9f4:	ff 90       	pop	r15
     9f6:	ef 90       	pop	r14
     9f8:	df 90       	pop	r13
     9fa:	08 95       	ret

000009fc <lcd_clear_area_xy>:
 * style         - style modifier
 * col           - column of upper left corner
 * page          - page of upper left corner
 * Cursor is moved to start of area after clear
 */
void lcd_clear_area_xy(uint8_t pages, uint8_t columns, uint8_t style, uint8_t col, uint8_t page) {
     9fc:	ef 92       	push	r14
     9fe:	ff 92       	push	r15
     a00:	0f 93       	push	r16
     a02:	1f 93       	push	r17
     a04:	18 2f       	mov	r17, r24
     a06:	f6 2e       	mov	r15, r22
     a08:	e4 2e       	mov	r14, r20
     a0a:	82 2f       	mov	r24, r18
     a0c:	60 2f       	mov	r22, r16
  lcd_moveto_xy(col,page);
     a0e:	0e 94 8a 03 	call	0x714	; 0x714 <lcd_moveto_xy>
  lcd_clear_area(pages,columns,style);
     a12:	81 2f       	mov	r24, r17
     a14:	6f 2d       	mov	r22, r15
     a16:	4e 2d       	mov	r20, r14
     a18:	0e 94 bb 04 	call	0x976	; 0x976 <lcd_clear_area>
  }
     a1c:	1f 91       	pop	r17
     a1e:	0f 91       	pop	r16
     a20:	ff 90       	pop	r15
     a22:	ef 90       	pop	r14
     a24:	08 95       	ret

00000a26 <init_spi_lcd>:
  */
void init_spi_lcd() {
   
   
   //set MOSI and SCK as output pins
   DDRB |= (1<<PINB5)|(1<<PINB7);
     a26:	87 b3       	in	r24, 0x17	; 23
     a28:	80 6a       	ori	r24, 0xA0	; 160
     a2a:	87 bb       	out	0x17, r24	; 23
   
   //set A0, LCD_Reset as outputs
   DDRA |= (1<<PINA5) | (1<<PINA4);
     a2c:	8a b3       	in	r24, 0x1a	; 26
     a2e:	80 63       	ori	r24, 0x30	; 48
     a30:	8a bb       	out	0x1a, r24	; 26
   
   //set SS` as an output pin
   DDRB |= (1<<PINB4);
     a32:	bc 9a       	sbi	0x17, 4	; 23
		CPOL:   Clock Polarity -> leading edge  = falling edge
							   -> trailing edge = rising edge
		CPHA:	Clock Phase -> Leading edge  = setup
							   Trailing edge = sample
   */
   SPCR = (0<<SPIE) | (1<<SPE) | (0<<DORD) | (1<<MSTR) | (1<<CPOL) | (1<<CPHA) | (0<<SPR1) | (0<<SPR0);
     a34:	8c e5       	ldi	r24, 0x5C	; 92
     a36:	8d b9       	out	0x0d, r24	; 13
         
   
   
   //SPI status register
   //SPI2X: Double SPI Speed Bit -> minimum SCK period will be two CPU clock periods
   SPSR = (1<<SPI2X);
     a38:	81 e0       	ldi	r24, 0x01	; 1
     a3a:	8e b9       	out	0x0e, r24	; 14

   SPDR = LCD_NOP; //Do not use 0 here, only LCD_NOP is allowed!
     a3c:	83 ee       	ldi	r24, 0xE3	; 227
     a3e:	8f b9       	out	0x0f, r24	; 15
   

   
   }
     a40:	08 95       	ret

00000a42 <lcd_init>:
/******************************************************************************
  * Initializes the display in 6 o'clock mode, 4x booster for 2.4-3.3V supply voltage
  * scheme according to datasheet
  * Suitable for all DOGS, DOGM and DOGL displays.
  */
void lcd_init() {
     a42:	0f 93       	push	r16
     a44:	1f 93       	push	r17
  //for better understanding -> write macros in clear text


  //set outputs
  //LCD_SET_PIN_DIRECTIONS();
  DDR_A0 |= (1<<PIN_A0);
     a46:	d5 9a       	sbi	0x1a, 5	; 26
  DDR_RST |= (1<<PIN_RST);
     a48:	d4 9a       	sbi	0x1a, 4	; 26
  DDR_CS  |= (1<<PIN_CS);
     a4a:	bc 9a       	sbi	0x17, 4	; 23
  
  
  //Initialize SPI Interface
  //LCD_INIT_SPI();   
  init_spi_lcd();
     a4c:	0e 94 13 05 	call	0xa26	; 0xa26 <init_spi_lcd>
    
  
  //Apply Reset to the Display Controller
  //LCD_RESET();
  PORT_RST &= ~(1<<PIN_RST);
     a50:	dc 98       	cbi	0x1b, 4	; 27
    milliseconds can be achieved.
 */
void
_delay_loop_2(uint16_t __count)
{
	__asm__ volatile (
     a52:	00 ed       	ldi	r16, 0xD0	; 208
     a54:	17 e0       	ldi	r17, 0x07	; 7
     a56:	c8 01       	movw	r24, r16
     a58:	01 97       	sbiw	r24, 0x01	; 1
     a5a:	f1 f7       	brne	.-4      	; 0xa58 <lcd_init+0x16>
  _delay_ms(1);
  PORT_RST |= (1<<PIN_RST);
     a5c:	dc 9a       	sbi	0x1b, 4	; 27
  
    
  //Load settings
  
  //(2)
  LCD_SET_FIRST_LINE(0);              //first bit in RAM is on the first line of the LCD
     a5e:	80 e4       	ldi	r24, 0x40	; 64
     a60:	0e 94 83 03 	call	0x706	; 0x706 <lcd_command>
     a64:	c8 01       	movw	r24, r16
     a66:	01 97       	sbiw	r24, 0x01	; 1
     a68:	f1 f7       	brne	.-4      	; 0xa66 <lcd_init+0x24>
  //without this delay the content is displayed mirror inverted
  _delay_ms(1); 


  //(8)     
  LCD_SET_BOTTOM_VIEW();              //6 o'clock mode, normal orientation
     a6a:	81 ea       	ldi	r24, 0xA1	; 161
     a6c:	0e 94 83 03 	call	0x706	; 0x706 <lcd_command>
  // |
  //  --> lcd_command(LCD_BOTTOMVIEW)
  //					-> LCD_BOTTOMVIEW = ADC reverse
  //_delay_ms(1);
  //(15)
  LCD_ORIENTATION_NORMAL();
     a70:	80 ec       	ldi	r24, 0xC0	; 192
     a72:	0e 94 83 03 	call	0x706	; 0x706 <lcd_command>
     a76:	c8 01       	movw	r24, r16
     a78:	01 97       	sbiw	r24, 0x01	; 1
     a7a:	f1 f7       	brne	.-4      	; 0xa78 <lcd_init+0x36>
  // |
  //   --> lcd_command(LCD_SHOW_NORMAL)
  //					-> LCD_SHOW_NORMAL = display all points, normal display (10)
    
  //(9)	
  LCD_SET_MODE_POSITIVE();            //positive display
     a7c:	86 ea       	ldi	r24, 0xA6	; 166
     a7e:	0e 94 83 03 	call	0x706	; 0x706 <lcd_command>
  //  --> lcd_command(LCD_DISPLAY_POSITIVE)
  //      				-> LCD_DISPLAY_POSITIVE = sets display normal (9)
   
  #if DISPLAY_TYPE == 132
    //(11)
    LCD_SET_BIAS_RATIO_1_9();           //bias 1/9
     a82:	82 ea       	ldi	r24, 0xA2	; 162
     a84:	0e 94 83 03 	call	0x706	; 0x706 <lcd_command>
    // |
	//  --> lcd_command(LCD_BIAS_1_9)
	
    //(16)	
	LCD_SET_POWER_CONTROL(7);           //power control mode: all features on
     a88:	8f e2       	ldi	r24, 0x2F	; 47
     a8a:	0e 94 83 03 	call	0x706	; 0x706 <lcd_command>
	//  --> lcd_command(LCD_POWER_CONTROL | ((i) & 0x07))  
	//						-> command 16 with operating mode = 0b111
	
	
	//(20) -> selbst eingefügtes macro
	LCD_SET_BOOSTER_RATIO();
     a8e:	80 e0       	ldi	r24, 0x00	; 0
     a90:	0e 94 83 03 	call	0x706	; 0x706 <lcd_command>
	
	
	//(17)
	LCD_SET_BIAS_VOLTAGE(3);            //set voltage regulator R/R
     a94:	83 e2       	ldi	r24, 0x23	; 35
     a96:	0e 94 83 03 	call	0x706	; 0x706 <lcd_command>
	// |
	//   --> lcd_command(LCD_VOLTAGE | ((i) & 0x07))
	// 						-> command 17 with resistor ration 0b011
    
	//(18)
	LCD_SET_VOLUME_MODE(0x1F);          //volume mode set
     a9a:	81 e8       	ldi	r24, 0x81	; 129
     a9c:	0e 94 83 03 	call	0x706	; 0x706 <lcd_command>
     aa0:	8f e1       	ldi	r24, 0x1F	; 31
     aa2:	0e 94 83 03 	call	0x706	; 0x706 <lcd_command>
	//						-> standard command 18
	//  --> lcd_command(LCD_VOLUME_MODE_2 | ((i) & 0x3F))
	//						-> command 18 with electronic volume value 0b011111
	
	//(19)
	LCD_SET_INDICATOR_OFF();            //switch indicator off, no blinking
     aa6:	8c ea       	ldi	r24, 0xAC	; 172
     aa8:	0e 94 83 03 	call	0x706	; 0x706 <lcd_command>
     aac:	80 e0       	ldi	r24, 0x00	; 0
     aae:	0e 94 83 03 	call	0x706	; 0x706 <lcd_command>
     ab2:	10 e0       	ldi	r17, 0x00	; 0
  
  
  uint8_t i,j;                        //clear display content
 
 for(j=0;j<LCD_RAM_PAGES;j++) {
    lcd_moveto_xy(j,0);   // array (uint8_t page, uint8_t column)
     ab4:	81 2f       	mov	r24, r17
     ab6:	60 e0       	ldi	r22, 0x00	; 0
     ab8:	0e 94 8a 03 	call	0x714	; 0x714 <lcd_moveto_xy>
     abc:	00 e0       	ldi	r16, 0x00	; 0
    for (i=0;i<LCD_WIDTH;i++)
      lcd_data(0);
     abe:	80 e0       	ldi	r24, 0x00	; 0
     ac0:	0e 94 78 03 	call	0x6f0	; 0x6f0 <lcd_data>
  
  uint8_t i,j;                        //clear display content
 
 for(j=0;j<LCD_RAM_PAGES;j++) {
    lcd_moveto_xy(j,0);   // array (uint8_t page, uint8_t column)
    for (i=0;i<LCD_WIDTH;i++)
     ac4:	0f 5f       	subi	r16, 0xFF	; 255
     ac6:	04 38       	cpi	r16, 0x84	; 132
     ac8:	d1 f7       	brne	.-12     	; 0xabe <lcd_init+0x7c>
  #endif
  
  
  uint8_t i,j;                        //clear display content
 
 for(j=0;j<LCD_RAM_PAGES;j++) {
     aca:	1f 5f       	subi	r17, 0xFF	; 255
     acc:	14 30       	cpi	r17, 0x04	; 4
     ace:	91 f7       	brne	.-28     	; 0xab4 <lcd_init+0x72>
    lcd_moveto_xy(j,0);   // array (uint8_t page, uint8_t column)
    for (i=0;i<LCD_WIDTH;i++)
      lcd_data(0);
    }

  lcd_moveto_xy(0,0);                 //Set write pointer
     ad0:	80 e0       	ldi	r24, 0x00	; 0
     ad2:	60 e0       	ldi	r22, 0x00	; 0
     ad4:	0e 94 8a 03 	call	0x714	; 0x714 <lcd_moveto_xy>
  LCD_SWITCH_ON();                    //Switch display on (1)
     ad8:	8f ea       	ldi	r24, 0xAF	; 175
     ada:	0e 94 83 03 	call	0x706	; 0x706 <lcd_command>
  return;
  }
     ade:	1f 91       	pop	r17
     ae0:	0f 91       	pop	r16
     ae2:	08 95       	ret

00000ae4 <__vector_16>:

//volatile double adc_wert;		//Wert der vom ADC kommt


ISR(ADC_vect) //ISR für ADC Conversion Complete
{
     ae4:	1f 92       	push	r1
     ae6:	0f 92       	push	r0
     ae8:	0f b6       	in	r0, 0x3f	; 63
     aea:	0f 92       	push	r0
     aec:	11 24       	eor	r1, r1

}
     aee:	0f 90       	pop	r0
     af0:	0f be       	out	0x3f, r0	; 63
     af2:	0f 90       	pop	r0
     af4:	1f 90       	pop	r1
     af6:	18 95       	reti

00000af8 <myInit>:

void myInit()
{
	//initialize lcd-display
	lcd_init();
     af8:	0e 94 21 05 	call	0xa42	; 0xa42 <lcd_init>
	
	//PortC.3 as status led output
	DDRA |= (1<<PINA7);
     afc:	d7 9a       	sbi	0x1a, 7	; 26
	PORTA |= (1<<PINA7);
     afe:	df 9a       	sbi	0x1b, 7	; 27
	

}
     b00:	08 95       	ret

00000b02 <main>:
{
    //variables
	int8_t compareValue = 31;


	cli();
     b02:	f8 94       	cli
	//Variablen
	myInit();
     b04:	0e 94 7c 05 	call	0xaf8	; 0xaf8 <myInit>
    pwm_init();
     b08:	0e 94 ec 08 	call	0x11d8	; 0x11d8 <pwm_init>
	pwm_update(compareValue); 
     b0c:	8f e1       	ldi	r24, 0x1F	; 31
     b0e:	0e 94 f7 08 	call	0x11ee	; 0x11ee <pwm_update>

	
    //lcd ouput:
	lcd_put_string_P(FONT_FIXED_8, NORMAL, PSTR("pos(page/column): "));
     b12:	82 e7       	ldi	r24, 0x72	; 114
     b14:	96 e0       	ldi	r25, 0x06	; 6
     b16:	60 e0       	ldi	r22, 0x00	; 0
     b18:	4f e5       	ldi	r20, 0x5F	; 95
     b1a:	50 e0       	ldi	r21, 0x00	; 0
     b1c:	0e 94 98 08 	call	0x1130	; 0x1130 <lcd_put_string_P>
	//lcd_put_short(currentPage);
    //lcd_put_string_P(FONT_FIXED_8, NORMAL, PSTR("/"));
    //lcd_put_short(currentColumn);   


    lcd_moveto_xy  (1, 0);
     b20:	81 e0       	ldi	r24, 0x01	; 1
     b22:	60 e0       	ldi	r22, 0x00	; 0
     b24:	0e 94 8a 03 	call	0x714	; 0x714 <lcd_moveto_xy>
	lcd_set_font(FONT_FIXED_8,NORMAL);
     b28:	82 e7       	ldi	r24, 0x72	; 114
     b2a:	96 e0       	ldi	r25, 0x06	; 6
     b2c:	60 e0       	ldi	r22, 0x00	; 0
     b2e:	0e 94 a4 05 	call	0xb48	; 0xb48 <lcd_set_font>
    lcd_put_string_P(FONT_FIXED_8, NORMAL, PSTR("PWM Wert: "));
     b32:	82 e7       	ldi	r24, 0x72	; 114
     b34:	96 e0       	ldi	r25, 0x06	; 6
     b36:	60 e0       	ldi	r22, 0x00	; 0
     b38:	44 e5       	ldi	r20, 0x54	; 84
     b3a:	50 e0       	ldi	r21, 0x00	; 0
     b3c:	0e 94 98 08 	call	0x1130	; 0x1130 <lcd_put_string_P>
    lcd_put_short(compareValue);
     b40:	8f e1       	ldi	r24, 0x1F	; 31
     b42:	0e 94 eb 07 	call	0xfd6	; 0xfd6 <lcd_put_short>
     b46:	ff cf       	rjmp	.-2      	; 0xb46 <main+0x44>

00000b48 <lcd_set_font>:
 * Stores the default font type and style in a global variable
 * font          - Font identifier
 * style         - Style Modifier
 */
inline void lcd_set_font(FONT_P font, uint8_t style){
  global_font_select = font;
     b48:	90 93 64 00 	sts	0x0064, r25
     b4c:	80 93 63 00 	sts	0x0063, r24
  global_font_style = style;
     b50:	60 93 62 00 	sts	0x0062, r22
}
     b54:	08 95       	ret

00000b56 <font_get_char_position>:


/******************************************************************************
 * Calculate the pointer to the requested character inside the Flash ROM
 */
PGM_P font_get_char_position(FONT_P font, char character) {
     b56:	9c 01       	movw	r18, r24
/******************************************************************************
 * Get the number of the character in the given font
 */
inline int16_t font_get_char_number(FONT_P font, char character) {
  FONT_P tmp = font;
  if (character > pgm_read_byte(&tmp->lastchar)) 
     b58:	2b 5f       	subi	r18, 0xFB	; 251
     b5a:	3f 4f       	sbci	r19, 0xFF	; 255
     b5c:	f9 01       	movw	r30, r18
     b5e:	84 91       	lpm	r24, Z+
     b60:	25 50       	subi	r18, 0x05	; 5
     b62:	30 40       	sbci	r19, 0x00	; 0
     b64:	86 17       	cp	r24, r22
     b66:	60 f0       	brcs	.+24     	; 0xb80 <font_get_char_position+0x2a>
    return -1;
  uint8_t first = pgm_read_byte(&tmp->firstchar);
     b68:	2c 5f       	subi	r18, 0xFC	; 252
     b6a:	3f 4f       	sbci	r19, 0xFF	; 255
     b6c:	f9 01       	movw	r30, r18
     b6e:	84 91       	lpm	r24, Z+
     b70:	24 50       	subi	r18, 0x04	; 4
     b72:	30 40       	sbci	r19, 0x00	; 0
  if (character < first) 
     b74:	68 17       	cp	r22, r24
     b76:	20 f0       	brcs	.+8      	; 0xb80 <font_get_char_position+0x2a>
    return -1;
  return character - first;
     b78:	70 e0       	ldi	r23, 0x00	; 0
     b7a:	68 1b       	sub	r22, r24
     b7c:	71 09       	sbc	r23, r1
     b7e:	02 c0       	rjmp	.+4      	; 0xb84 <font_get_char_position+0x2e>
     b80:	6f ef       	ldi	r22, 0xFF	; 255
     b82:	7f ef       	ldi	r23, 0xFF	; 255
 * Loads the pointer to the width table for the selected font
 */
inline PGM_P font_widthtable(FONT_P font) {
  PGM_P tmp;
  if (sizeof(tmp) == 2)
    tmp = (PGM_P)pgm_read_word(&(font->widthtable));
     b84:	2a 5f       	subi	r18, 0xFA	; 250
     b86:	3f 4f       	sbci	r19, 0xFF	; 255
     b88:	f9 01       	movw	r30, r18
     b8a:	45 91       	lpm	r20, Z+
     b8c:	54 91       	lpm	r21, Z+
     b8e:	26 50       	subi	r18, 0x06	; 6
     b90:	30 40       	sbci	r19, 0x00	; 0
  uint16_t ret         = 0;
  int16_t  charnum_ret = font_get_char_number(font, character);
  uint8_t  charnum     = charnum_ret;
  PGM_P    base        = font_widthtable(font);

  if (charnum_ret < 0)     //char not found
     b92:	77 ff       	sbrs	r23, 7
     b94:	03 c0       	rjmp	.+6      	; 0xb9c <font_get_char_position+0x46>
     b96:	40 e0       	ldi	r20, 0x00	; 0
     b98:	50 e0       	ldi	r21, 0x00	; 0
     b9a:	4b c0       	rjmp	.+150    	; 0xc32 <font_get_char_position+0xdc>
 * Calculate the pointer to the requested character inside the Flash ROM
 */
PGM_P font_get_char_position(FONT_P font, char character) {
  uint16_t ret         = 0;
  int16_t  charnum_ret = font_get_char_number(font, character);
  uint8_t  charnum     = charnum_ret;
     b9c:	96 2f       	mov	r25, r22
  PGM_P    base        = font_widthtable(font);

  if (charnum_ret < 0)     //char not found
    return 0;
  if(base == 0)            //fixed width
     b9e:	41 15       	cp	r20, r1
     ba0:	51 05       	cpc	r21, r1
     ba2:	d1 f4       	brne	.+52     	; 0xbd8 <font_get_char_position+0x82>
 * Loads the pointer to the selected fonts data
 */
inline PGM_P font_data(FONT_P font) {
  PGM_P tmp;
  if (sizeof(tmp) == 2)
    tmp = (PGM_P)pgm_read_word(&(font->data));
     ba4:	f9 01       	movw	r30, r18
     ba6:	38 96       	adiw	r30, 0x08	; 8
     ba8:	45 91       	lpm	r20, Z+
     baa:	54 91       	lpm	r21, Z+
/******************************************************************************
 * Loads the height (in bytes) of the given font
 */
inline uint8_t font_get_height_bytes(FONT_P font) {
  FONT_P tmp = font;
  uint8_t t = pgm_read_byte(&tmp->height);
     bac:	2d 5f       	subi	r18, 0xFD	; 253
     bae:	3f 4f       	sbci	r19, 0xFF	; 255
     bb0:	f9 01       	movw	r30, r18
     bb2:	84 91       	lpm	r24, Z+
inline uint8_t font_get_char_width(FONT_P font, char character) {
  PGM_P table = font_widthtable(font);
  if (table)
    return pgm_read_byte(table+font_get_char_number(font,character));
  else
    return pgm_read_byte(&font->width);
     bb4:	21 50       	subi	r18, 0x01	; 1
     bb6:	30 40       	sbci	r19, 0x00	; 0
     bb8:	f9 01       	movw	r30, r18
     bba:	24 91       	lpm	r18, Z+
  PGM_P    base        = font_widthtable(font);

  if (charnum_ret < 0)     //char not found
    return 0;
  if(base == 0)            //fixed width
    return font_data(font) + (uint16_t)charnum * (uint8_t)(font_get_height_bytes(font) * font_get_char_width(font,character));
     bbc:	81 50       	subi	r24, 0x01	; 1
     bbe:	86 95       	lsr	r24
     bc0:	86 95       	lsr	r24
     bc2:	86 95       	lsr	r24
     bc4:	8f 5f       	subi	r24, 0xFF	; 255
     bc6:	28 9f       	mul	r18, r24
     bc8:	20 2d       	mov	r18, r0
     bca:	11 24       	eor	r1, r1
     bcc:	26 9f       	mul	r18, r22
     bce:	90 01       	movw	r18, r0
     bd0:	11 24       	eor	r1, r1
     bd2:	42 0f       	add	r20, r18
     bd4:	53 1f       	adc	r21, r19
     bd6:	2d c0       	rjmp	.+90     	; 0xc32 <font_get_char_position+0xdc>
  if (charnum)             //proportional width
     bd8:	66 23       	and	r22, r22
     bda:	19 f4       	brne	.+6      	; 0xbe2 <font_get_char_position+0x8c>
     bdc:	60 e0       	ldi	r22, 0x00	; 0
     bde:	70 e0       	ldi	r23, 0x00	; 0
     be0:	10 c0       	rjmp	.+32     	; 0xc02 <font_get_char_position+0xac>
     be2:	60 e0       	ldi	r22, 0x00	; 0
     be4:	70 e0       	ldi	r23, 0x00	; 0
    while(charnum--)
     be6:	fa 01       	movw	r30, r20
     be8:	e9 0f       	add	r30, r25
     bea:	f1 1d       	adc	r31, r1
     bec:	cf 01       	movw	r24, r30
     bee:	06 c0       	rjmp	.+12     	; 0xbfc <font_get_char_position+0xa6>

  if (charnum_ret < 0)     //char not found
    return 0;
  if(base == 0)            //fixed width
    return font_data(font) + (uint16_t)charnum * (uint8_t)(font_get_height_bytes(font) * font_get_char_width(font,character));
  if (charnum)             //proportional width
     bf0:	fa 01       	movw	r30, r20
    while(charnum--)
      ret += pgm_read_byte(base++);
     bf2:	4f 5f       	subi	r20, 0xFF	; 255
     bf4:	5f 4f       	sbci	r21, 0xFF	; 255
     bf6:	e4 91       	lpm	r30, Z+
     bf8:	6e 0f       	add	r22, r30
     bfa:	71 1d       	adc	r23, r1
  if (charnum_ret < 0)     //char not found
    return 0;
  if(base == 0)            //fixed width
    return font_data(font) + (uint16_t)charnum * (uint8_t)(font_get_height_bytes(font) * font_get_char_width(font,character));
  if (charnum)             //proportional width
    while(charnum--)
     bfc:	48 17       	cp	r20, r24
     bfe:	59 07       	cpc	r21, r25
     c00:	b9 f7       	brne	.-18     	; 0xbf0 <font_get_char_position+0x9a>
 * Loads the pointer to the selected fonts data
 */
inline PGM_P font_data(FONT_P font) {
  PGM_P tmp;
  if (sizeof(tmp) == 2)
    tmp = (PGM_P)pgm_read_word(&(font->data));
     c02:	f9 01       	movw	r30, r18
     c04:	38 96       	adiw	r30, 0x08	; 8
     c06:	45 91       	lpm	r20, Z+
     c08:	54 91       	lpm	r21, Z+
/******************************************************************************
 * Loads the height (in bytes) of the given font
 */
inline uint8_t font_get_height_bytes(FONT_P font) {
  FONT_P tmp = font;
  uint8_t t = pgm_read_byte(&tmp->height);
     c0a:	2d 5f       	subi	r18, 0xFD	; 253
     c0c:	3f 4f       	sbci	r19, 0xFF	; 255
     c0e:	f9 01       	movw	r30, r18
     c10:	84 91       	lpm	r24, Z+
  if(base == 0)            //fixed width
    return font_data(font) + (uint16_t)charnum * (uint8_t)(font_get_height_bytes(font) * font_get_char_width(font,character));
  if (charnum)             //proportional width
    while(charnum--)
      ret += pgm_read_byte(base++);
  return (font_data(font))+ret*font_get_height_bytes(font);
     c12:	81 50       	subi	r24, 0x01	; 1
     c14:	86 95       	lsr	r24
     c16:	86 95       	lsr	r24
     c18:	86 95       	lsr	r24
     c1a:	8f 5f       	subi	r24, 0xFF	; 255
     c1c:	90 e0       	ldi	r25, 0x00	; 0
     c1e:	9c 01       	movw	r18, r24
     c20:	26 9f       	mul	r18, r22
     c22:	c0 01       	movw	r24, r0
     c24:	27 9f       	mul	r18, r23
     c26:	90 0d       	add	r25, r0
     c28:	36 9f       	mul	r19, r22
     c2a:	90 0d       	add	r25, r0
     c2c:	11 24       	eor	r1, r1
     c2e:	48 0f       	add	r20, r24
     c30:	59 1f       	adc	r21, r25
  }
     c32:	ca 01       	movw	r24, r20
     c34:	08 95       	ret

00000c36 <lcd_put_char>:
 *****************************************************************************/

/******************************************************************************
 * Outputs a character on the display, using the given font and style
 */
uint8_t lcd_put_char(FONT_P font, uint8_t style, char character) {
     c36:	2f 92       	push	r2
     c38:	3f 92       	push	r3
     c3a:	4f 92       	push	r4
     c3c:	5f 92       	push	r5
     c3e:	6f 92       	push	r6
     c40:	7f 92       	push	r7
     c42:	8f 92       	push	r8
     c44:	9f 92       	push	r9
     c46:	af 92       	push	r10
     c48:	bf 92       	push	r11
     c4a:	cf 92       	push	r12
     c4c:	df 92       	push	r13
     c4e:	ef 92       	push	r14
     c50:	ff 92       	push	r15
     c52:	0f 93       	push	r16
     c54:	1f 93       	push	r17
     c56:	df 93       	push	r29
     c58:	cf 93       	push	r28
     c5a:	cd b7       	in	r28, 0x3d	; 61
     c5c:	de b7       	in	r29, 0x3e	; 62
     c5e:	2b 97       	sbiw	r28, 0x0b	; 11
     c60:	0f b6       	in	r0, 0x3f	; 63
     c62:	f8 94       	cli
     c64:	de bf       	out	0x3e, r29	; 62
     c66:	0f be       	out	0x3f, r0	; 63
     c68:	cd bf       	out	0x3d, r28	; 61
     c6a:	5c 01       	movw	r10, r24
     c6c:	e4 2e       	mov	r14, r20
  int8_t  i;
  uint8_t row  = 0;                             //current row of char
  uint8_t hc   = (style & DOUBLE_HEIGHT)?1:0;   //height changed
     c6e:	22 24       	eor	r2, r2
     c70:	23 94       	inc	r2
     c72:	26 22       	and	r2, r22
  uint8_t wc   = (style & DOUBLE_WIDTH)?1:0;    //width changed
     c74:	06 2f       	mov	r16, r22
     c76:	10 e0       	ldi	r17, 0x00	; 0
     c78:	c8 01       	movw	r24, r16
     c7a:	96 95       	lsr	r25
     c7c:	87 95       	ror	r24
     c7e:	28 2f       	mov	r18, r24
     c80:	21 70       	andi	r18, 0x01	; 1
     c82:	2c 83       	std	Y+4, r18	; 0x04
  uint8_t ul   = (style & UNDERLINE)?0x80:0x00; //underline
     c84:	64 fd       	sbrc	r22, 4
     c86:	02 c0       	rjmp	.+4      	; 0xc8c <lcd_put_char+0x56>
     c88:	33 24       	eor	r3, r3
     c8a:	02 c0       	rjmp	.+4      	; 0xc90 <lcd_put_char+0x5a>
     c8c:	80 e8       	ldi	r24, 0x80	; 128
     c8e:	38 2e       	mov	r3, r24
  uint8_t inv  = (style & INVERT)?0xFF:0;       //inverted
     c90:	02 fd       	sbrc	r16, 2
     c92:	02 c0       	rjmp	.+4      	; 0xc98 <lcd_put_char+0x62>
     c94:	44 24       	eor	r4, r4
     c96:	02 c0       	rjmp	.+4      	; 0xc9c <lcd_put_char+0x66>
     c98:	44 24       	eor	r4, r4
     c9a:	4a 94       	dec	r4
 * Loads the pointer to the width table for the selected font
 */
inline PGM_P font_widthtable(FONT_P font) {
  PGM_P tmp;
  if (sizeof(tmp) == 2)
    tmp = (PGM_P)pgm_read_word(&(font->widthtable));
     c9c:	b5 01       	movw	r22, r10
     c9e:	6a 5f       	subi	r22, 0xFA	; 250
     ca0:	7f 4f       	sbci	r23, 0xFF	; 255
     ca2:	fb 01       	movw	r30, r22
     ca4:	25 91       	lpm	r18, Z+
     ca6:	34 91       	lpm	r19, Z+
/******************************************************************************
 * Read the width of the selected character from the font width table
 */
inline uint8_t font_get_char_width(FONT_P font, char character) {
  PGM_P table = font_widthtable(font);
  if (table)
     ca8:	21 15       	cp	r18, r1
     caa:	31 05       	cpc	r19, r1
     cac:	21 f1       	breq	.+72     	; 0xcf6 <lcd_put_char+0xc0>
/******************************************************************************
 * Get the number of the character in the given font
 */
inline int16_t font_get_char_number(FONT_P font, char character) {
  FONT_P tmp = font;
  if (character > pgm_read_byte(&tmp->lastchar)) 
     cae:	45 e0       	ldi	r20, 0x05	; 5
     cb0:	50 e0       	ldi	r21, 0x00	; 0
     cb2:	a4 0e       	add	r10, r20
     cb4:	b5 1e       	adc	r11, r21
     cb6:	f5 01       	movw	r30, r10
     cb8:	84 91       	lpm	r24, Z+
     cba:	4b ef       	ldi	r20, 0xFB	; 251
     cbc:	5f ef       	ldi	r21, 0xFF	; 255
     cbe:	a4 0e       	add	r10, r20
     cc0:	b5 1e       	adc	r11, r21
     cc2:	8e 15       	cp	r24, r14
     cc4:	88 f0       	brcs	.+34     	; 0xce8 <lcd_put_char+0xb2>
    return -1;
  uint8_t first = pgm_read_byte(&tmp->firstchar);
     cc6:	84 e0       	ldi	r24, 0x04	; 4
     cc8:	90 e0       	ldi	r25, 0x00	; 0
     cca:	a8 0e       	add	r10, r24
     ccc:	b9 1e       	adc	r11, r25
     cce:	f5 01       	movw	r30, r10
     cd0:	44 91       	lpm	r20, Z+
     cd2:	8c ef       	ldi	r24, 0xFC	; 252
     cd4:	9f ef       	ldi	r25, 0xFF	; 255
     cd6:	a8 0e       	add	r10, r24
     cd8:	b9 1e       	adc	r11, r25
  if (character < first) 
     cda:	e4 16       	cp	r14, r20
     cdc:	28 f0       	brcs	.+10     	; 0xce8 <lcd_put_char+0xb2>
    return -1;
  return character - first;
     cde:	8e 2d       	mov	r24, r14
     ce0:	90 e0       	ldi	r25, 0x00	; 0
     ce2:	84 1b       	sub	r24, r20
     ce4:	91 09       	sbc	r25, r1
     ce6:	02 c0       	rjmp	.+4      	; 0xcec <lcd_put_char+0xb6>
     ce8:	8f ef       	ldi	r24, 0xFF	; 255
     cea:	9f ef       	ldi	r25, 0xFF	; 255
 * Read the width of the selected character from the font width table
 */
inline uint8_t font_get_char_width(FONT_P font, char character) {
  PGM_P table = font_widthtable(font);
  if (table)
    return pgm_read_byte(table+font_get_char_number(font,character));
     cec:	28 0f       	add	r18, r24
     cee:	39 1f       	adc	r19, r25
     cf0:	f9 01       	movw	r30, r18
     cf2:	f4 90       	lpm	r15, Z+
     cf4:	0a c0       	rjmp	.+20     	; 0xd0a <lcd_put_char+0xd4>
  else
    return pgm_read_byte(&font->width);
     cf6:	22 e0       	ldi	r18, 0x02	; 2
     cf8:	30 e0       	ldi	r19, 0x00	; 0
     cfa:	a2 0e       	add	r10, r18
     cfc:	b3 1e       	adc	r11, r19
     cfe:	f5 01       	movw	r30, r10
     d00:	f4 90       	lpm	r15, Z+
     d02:	2e ef       	ldi	r18, 0xFE	; 254
     d04:	3f ef       	ldi	r19, 0xFF	; 255
     d06:	a2 0e       	add	r10, r18
     d08:	b3 1e       	adc	r11, r19
/******************************************************************************
 * Loads the height (in bytes) of the given font
 */
inline uint8_t font_get_height_bytes(FONT_P font) {
  FONT_P tmp = font;
  uint8_t t = pgm_read_byte(&tmp->height);
     d0a:	43 e0       	ldi	r20, 0x03	; 3
     d0c:	50 e0       	ldi	r21, 0x00	; 0
     d0e:	a4 0e       	add	r10, r20
     d10:	b5 1e       	adc	r11, r21
     d12:	f5 01       	movw	r30, r10
     d14:	d4 90       	lpm	r13, Z+
     d16:	2d ef       	ldi	r18, 0xFD	; 253
     d18:	3f ef       	ldi	r19, 0xFF	; 255
     d1a:	a2 0e       	add	r10, r18
     d1c:	b3 1e       	adc	r11, r19
  return (((uint8_t)(t-1)>>3)+1);
     d1e:	da 94       	dec	r13
     d20:	d6 94       	lsr	r13
     d22:	d6 94       	lsr	r13
     d24:	d6 94       	lsr	r13
     d26:	d3 94       	inc	r13
 * Loads the pointer to the width table for the selected font
 */
inline PGM_P font_widthtable(FONT_P font) {
  PGM_P tmp;
  if (sizeof(tmp) == 2)
    tmp = (PGM_P)pgm_read_word(&(font->widthtable));
     d28:	fb 01       	movw	r30, r22
     d2a:	85 91       	lpm	r24, Z+
     d2c:	94 91       	lpm	r25, Z+
     d2e:	55 24       	eor	r5, r5
     d30:	89 2b       	or	r24, r25
     d32:	11 f0       	breq	.+4      	; 0xd38 <lcd_put_char+0x102>
     d34:	55 24       	eor	r5, r5
     d36:	53 94       	inc	r5

  //load information about character
   uint8_t char_width    = font_get_char_width(font,character); 
   uint8_t font_height   = font_get_height_bytes(font);
   uint8_t free_space    = font_get_add_space(font,character);
   PGM_P   tableposition = font_get_char_position(font,character);
     d38:	c5 01       	movw	r24, r10
     d3a:	6e 2d       	mov	r22, r14
     d3c:	0e 94 ab 05 	call	0xb56	; 0xb56 <font_get_char_position>
     d40:	9b 83       	std	Y+3, r25	; 0x03
     d42:	8a 83       	std	Y+2, r24	; 0x02

  //final size of character
  uint8_t char_final_width  = (uint8_t)(char_width+free_space) << wc;
     d44:	c5 2c       	mov	r12, r5
     d46:	cf 0c       	add	r12, r15
     d48:	0c 80       	ldd	r0, Y+4	; 0x04
     d4a:	01 c0       	rjmp	.+2      	; 0xd4e <lcd_put_char+0x118>
     d4c:	cc 0c       	add	r12, r12
     d4e:	0a 94       	dec	r0
     d50:	ea f7       	brpl	.-6      	; 0xd4c <lcd_put_char+0x116>
  uint8_t char_final_height = (uint8_t)font_height << hc; 
     d52:	8d 2c       	mov	r8, r13
     d54:	99 24       	eor	r9, r9
     d56:	bd 2c       	mov	r11, r13
     d58:	02 2c       	mov	r0, r2
     d5a:	01 c0       	rjmp	.+2      	; 0xd5e <lcd_put_char+0x128>
     d5c:	bb 0c       	add	r11, r11
     d5e:	0a 94       	dec	r0
     d60:	ea f7       	brpl	.-6      	; 0xd5c <lcd_put_char+0x126>

  //check for avail. space on display
  if ((style & WRAP) && (LCD_CURRENT_COL() + char_final_width > LCD_WIDTH)) {
     d62:	03 ff       	sbrs	r16, 3
     d64:	13 c0       	rjmp	.+38     	; 0xd8c <lcd_put_char+0x156>
     d66:	80 91 61 00 	lds	r24, 0x0061
     d6a:	90 e0       	ldi	r25, 0x00	; 0
     d6c:	8c 0d       	add	r24, r12
     d6e:	91 1d       	adc	r25, r1
     d70:	85 38       	cpi	r24, 0x85	; 133
     d72:	91 05       	cpc	r25, r1
     d74:	5c f0       	brlt	.+22     	; 0xd8c <lcd_put_char+0x156>
    LCD_MOVE_TO(LCD_CURRENT_PAGE()+char_final_height,0);
     d76:	80 91 60 00 	lds	r24, 0x0060
     d7a:	8b 0d       	add	r24, r11
     d7c:	60 e0       	ldi	r22, 0x00	; 0
     d7e:	0e 94 8a 03 	call	0x714	; 0x714 <lcd_moveto_xy>
    if (character == ' ') return 0;
     d82:	f0 e2       	ldi	r31, 0x20	; 32
     d84:	ef 16       	cp	r14, r31
     d86:	11 f4       	brne	.+4      	; 0xd8c <lcd_put_char+0x156>
     d88:	cc 24       	eor	r12, r12
     d8a:	8e c0       	rjmp	.+284    	; 0xea8 <lcd_put_char+0x272>
    }
  
  //write chracter
  do {
    for(i=(row>>hc); i<char_width*font_height; i+=font_height) {
     d8c:	8f 2d       	mov	r24, r15
     d8e:	90 e0       	ldi	r25, 0x00	; 0
     d90:	88 9e       	mul	r8, r24
     d92:	90 01       	movw	r18, r0
     d94:	89 9e       	mul	r8, r25
     d96:	30 0d       	add	r19, r0
     d98:	98 9e       	mul	r9, r24
     d9a:	30 0d       	add	r19, r0
     d9c:	11 24       	eor	r1, r1
     d9e:	3e 83       	std	Y+6, r19	; 0x06
     da0:	2d 83       	std	Y+5, r18	; 0x05
        LCD_WRITE(tmp);
      }
    if (free_space) {
      uint8_t c = inv;
      if(row == char_final_height-1) {
        c ^= ul; 
     da2:	34 2d       	mov	r19, r4
     da4:	33 25       	eor	r19, r3
     da6:	39 83       	std	Y+1, r19	; 0x01
        if(hc)
          c ^= ul>>1;      
     da8:	a3 2c       	mov	r10, r3
     daa:	a6 94       	lsr	r10
     dac:	a3 26       	eor	r10, r19
     dae:	1b 86       	std	Y+11, r1	; 0x0b
     db0:	1a 86       	std	Y+10, r1	; 0x0a
  
  //write chracter
  do {
    for(i=(row>>hc); i<char_width*font_height; i+=font_height) {
      tmp = pgm_read_byte(tableposition+i);
      if(row == char_final_height-1) 
     db2:	eb 2c       	mov	r14, r11
     db4:	ff 24       	eor	r15, r15
     db6:	08 94       	sec
     db8:	e1 08       	sbc	r14, r1
     dba:	f1 08       	sbc	r15, r1
        }
      LCD_WRITE(c);
      if(wc) 
        LCD_WRITE(c);
      }
    LCD_MOVE(1,-char_final_width);
     dbc:	6c 2c       	mov	r6, r12
     dbe:	77 24       	eor	r7, r7
     dc0:	44 27       	eor	r20, r20
     dc2:	55 27       	eor	r21, r21
     dc4:	46 19       	sub	r20, r6
     dc6:	57 09       	sbc	r21, r7
     dc8:	59 87       	std	Y+9, r21	; 0x09
     dca:	48 87       	std	Y+8, r20	; 0x08
    if (character == ' ') return 0;
    }
  
  //write chracter
  do {
    for(i=(row>>hc); i<char_width*font_height; i+=font_height) {
     dcc:	8a 84       	ldd	r8, Y+10	; 0x0a
     dce:	9b 84       	ldd	r9, Y+11	; 0x0b
     dd0:	02 2c       	mov	r0, r2
     dd2:	02 c0       	rjmp	.+4      	; 0xdd8 <lcd_put_char+0x1a2>
     dd4:	95 94       	asr	r9
     dd6:	87 94       	ror	r8
     dd8:	0a 94       	dec	r0
     dda:	e2 f7       	brpl	.-8      	; 0xdd4 <lcd_put_char+0x19e>
     ddc:	00 e0       	ldi	r16, 0x00	; 0
 * part = 1:  abcdefgh -> aabbccdd
 * Used for double height font
 */
inline unsigned char double_bits(uint8_t part, char c) {
  char t = 0;
  if (part) c = c>>4;
     dde:	5a 85       	ldd	r21, Y+10	; 0x0a
     de0:	51 70       	andi	r21, 0x01	; 1
     de2:	5f 83       	std	Y+7, r21	; 0x07
     de4:	2d c0       	rjmp	.+90     	; 0xe40 <lcd_put_char+0x20a>
    }
  
  //write chracter
  do {
    for(i=(row>>hc); i<char_width*font_height; i+=font_height) {
      tmp = pgm_read_byte(tableposition+i);
     de6:	8a 81       	ldd	r24, Y+2	; 0x02
     de8:	9b 81       	ldd	r25, Y+3	; 0x03
     dea:	e8 0f       	add	r30, r24
     dec:	f9 1f       	adc	r31, r25
     dee:	84 91       	lpm	r24, Z+
      if(row == char_final_height-1) 
     df0:	aa 85       	ldd	r26, Y+10	; 0x0a
     df2:	bb 85       	ldd	r27, Y+11	; 0x0b
     df4:	ae 15       	cp	r26, r14
     df6:	bf 05       	cpc	r27, r15
     df8:	11 f0       	breq	.+4      	; 0xdfe <lcd_put_char+0x1c8>
     dfa:	18 2f       	mov	r17, r24
     dfc:	02 c0       	rjmp	.+4      	; 0xe02 <lcd_put_char+0x1cc>
        tmp |= ul;
     dfe:	18 2f       	mov	r17, r24
     e00:	13 29       	or	r17, r3
      if(hc)
     e02:	22 20       	and	r2, r2
     e04:	89 f0       	breq	.+34     	; 0xe28 <lcd_put_char+0x1f2>
 * part = 1:  abcdefgh -> aabbccdd
 * Used for double height font
 */
inline unsigned char double_bits(uint8_t part, char c) {
  char t = 0;
  if (part) c = c>>4;
     e06:	bf 81       	ldd	r27, Y+7	; 0x07
     e08:	bb 23       	and	r27, r27
     e0a:	11 f0       	breq	.+4      	; 0xe10 <lcd_put_char+0x1da>
     e0c:	12 95       	swap	r17
     e0e:	1f 70       	andi	r17, 0x0F	; 15
  if (c & 0x08) t  = 0xC0;
     e10:	81 2f       	mov	r24, r17
     e12:	13 fd       	sbrc	r17, 3
     e14:	02 c0       	rjmp	.+4      	; 0xe1a <lcd_put_char+0x1e4>
     e16:	10 e0       	ldi	r17, 0x00	; 0
     e18:	01 c0       	rjmp	.+2      	; 0xe1c <lcd_put_char+0x1e6>
     e1a:	10 ec       	ldi	r17, 0xC0	; 192
  if (c & 0x04) t |= 0x30;
     e1c:	82 fd       	sbrc	r24, 2
     e1e:	10 63       	ori	r17, 0x30	; 48
  if (c & 0x02) t |= 0x0C;
     e20:	81 fd       	sbrc	r24, 1
     e22:	1c 60       	ori	r17, 0x0C	; 12
  if (c & 0x01) t |= 0x03;
     e24:	80 fd       	sbrc	r24, 0
     e26:	13 60       	ori	r17, 0x03	; 3
      tmp = pgm_read_byte(tableposition+i);
      if(row == char_final_height-1) 
        tmp |= ul;
      if(hc)
        tmp = double_bits((row&1),tmp);
      if(inv)
     e28:	41 10       	cpse	r4, r1
        tmp = ~tmp;
     e2a:	10 95       	com	r17
      LCD_WRITE(tmp);
     e2c:	81 2f       	mov	r24, r17
     e2e:	0e 94 78 03 	call	0x6f0	; 0x6f0 <lcd_data>
      if(wc) 
     e32:	ec 81       	ldd	r30, Y+4	; 0x04
     e34:	ee 23       	and	r30, r30
     e36:	19 f0       	breq	.+6      	; 0xe3e <lcd_put_char+0x208>
        LCD_WRITE(tmp);
     e38:	81 2f       	mov	r24, r17
     e3a:	0e 94 78 03 	call	0x6f0	; 0x6f0 <lcd_data>
     e3e:	0d 0d       	add	r16, r13
     e40:	80 2f       	mov	r24, r16
     e42:	88 0d       	add	r24, r8
    if (character == ' ') return 0;
    }
  
  //write chracter
  do {
    for(i=(row>>hc); i<char_width*font_height; i+=font_height) {
     e44:	e8 2f       	mov	r30, r24
     e46:	ff 27       	eor	r31, r31
     e48:	e7 fd       	sbrc	r30, 7
     e4a:	f0 95       	com	r31
     e4c:	2d 81       	ldd	r18, Y+5	; 0x05
     e4e:	3e 81       	ldd	r19, Y+6	; 0x06
     e50:	e2 17       	cp	r30, r18
     e52:	f3 07       	cpc	r31, r19
     e54:	44 f2       	brlt	.-112    	; 0xde6 <lcd_put_char+0x1b0>
        tmp = ~tmp;
      LCD_WRITE(tmp);
      if(wc) 
        LCD_WRITE(tmp);
      }
    if (free_space) {
     e56:	55 20       	and	r5, r5
     e58:	a9 f0       	breq	.+42     	; 0xe84 <lcd_put_char+0x24e>
      uint8_t c = inv;
      if(row == char_final_height-1) {
     e5a:	4a 85       	ldd	r20, Y+10	; 0x0a
     e5c:	5b 85       	ldd	r21, Y+11	; 0x0b
     e5e:	4e 15       	cp	r20, r14
     e60:	5f 05       	cpc	r21, r15
     e62:	11 f0       	breq	.+4      	; 0xe68 <lcd_put_char+0x232>
     e64:	14 2d       	mov	r17, r4
     e66:	05 c0       	rjmp	.+10     	; 0xe72 <lcd_put_char+0x23c>
        c ^= ul; 
        if(hc)
     e68:	22 20       	and	r2, r2
     e6a:	11 f4       	brne	.+4      	; 0xe70 <lcd_put_char+0x23a>
     e6c:	19 81       	ldd	r17, Y+1	; 0x01
     e6e:	01 c0       	rjmp	.+2      	; 0xe72 <lcd_put_char+0x23c>
     e70:	1a 2d       	mov	r17, r10
          c ^= ul>>1;      
        }
      LCD_WRITE(c);
     e72:	81 2f       	mov	r24, r17
     e74:	0e 94 78 03 	call	0x6f0	; 0x6f0 <lcd_data>
      if(wc) 
     e78:	5c 81       	ldd	r21, Y+4	; 0x04
     e7a:	55 23       	and	r21, r21
     e7c:	19 f0       	breq	.+6      	; 0xe84 <lcd_put_char+0x24e>
        LCD_WRITE(c);
     e7e:	81 2f       	mov	r24, r17
     e80:	0e 94 78 03 	call	0x6f0	; 0x6f0 <lcd_data>
      }
    LCD_MOVE(1,-char_final_width);
     e84:	81 e0       	ldi	r24, 0x01	; 1
     e86:	68 85       	ldd	r22, Y+8	; 0x08
     e88:	79 85       	ldd	r23, Y+9	; 0x09
     e8a:	0e 94 a3 03 	call	0x746	; 0x746 <lcd_move_xy>
     e8e:	8a 85       	ldd	r24, Y+10	; 0x0a
     e90:	9b 85       	ldd	r25, Y+11	; 0x0b
     e92:	01 96       	adiw	r24, 0x01	; 1
     e94:	9b 87       	std	Y+11, r25	; 0x0b
     e96:	8a 87       	std	Y+10, r24	; 0x0a
    } while (++row < char_final_height);
     e98:	8b 15       	cp	r24, r11
     e9a:	08 f4       	brcc	.+2      	; 0xe9e <lcd_put_char+0x268>
     e9c:	97 cf       	rjmp	.-210    	; 0xdcc <lcd_put_char+0x196>

  //move cursor to upper right corner of character
  LCD_MOVE(-char_final_height,char_final_width);
     e9e:	8b 2d       	mov	r24, r11
     ea0:	81 95       	neg	r24
     ea2:	b3 01       	movw	r22, r6
     ea4:	0e 94 a3 03 	call	0x746	; 0x746 <lcd_move_xy>
  return char_final_width;
  }
     ea8:	8c 2d       	mov	r24, r12
     eaa:	2b 96       	adiw	r28, 0x0b	; 11
     eac:	0f b6       	in	r0, 0x3f	; 63
     eae:	f8 94       	cli
     eb0:	de bf       	out	0x3e, r29	; 62
     eb2:	0f be       	out	0x3f, r0	; 63
     eb4:	cd bf       	out	0x3d, r28	; 61
     eb6:	cf 91       	pop	r28
     eb8:	df 91       	pop	r29
     eba:	1f 91       	pop	r17
     ebc:	0f 91       	pop	r16
     ebe:	ff 90       	pop	r15
     ec0:	ef 90       	pop	r14
     ec2:	df 90       	pop	r13
     ec4:	cf 90       	pop	r12
     ec6:	bf 90       	pop	r11
     ec8:	af 90       	pop	r10
     eca:	9f 90       	pop	r9
     ecc:	8f 90       	pop	r8
     ece:	7f 90       	pop	r7
     ed0:	6f 90       	pop	r6
     ed2:	5f 90       	pop	r5
     ed4:	4f 90       	pop	r4
     ed6:	3f 90       	pop	r3
     ed8:	2f 90       	pop	r2
     eda:	08 95       	ret

00000edc <lcd_putc>:


/******************************************************************************
 * Outputs a character on the display, using the global font and style
 */ 
uint8_t  lcd_putc(char c) {
     edc:	48 2f       	mov	r20, r24
  return lcd_put_char(global_font_select, global_font_style, c);
     ede:	80 91 63 00 	lds	r24, 0x0063
     ee2:	90 91 64 00 	lds	r25, 0x0064
     ee6:	60 91 62 00 	lds	r22, 0x0062
     eea:	0e 94 1b 06 	call	0xc36	; 0xc36 <lcd_put_char>
  }
     eee:	08 95       	ret

00000ef0 <lcd_put_char_xy>:
/******************************************************************************
 * Outputs a string on the display, using the given font and style, reading
 * the string from main memory. The position of the string on the display
 * is selected by page / col.
 */ 
uint8_t lcd_put_char_xy(FONT_P font, uint8_t style, char character, uint8_t page, uint8_t col) {
     ef0:	df 92       	push	r13
     ef2:	ef 92       	push	r14
     ef4:	ff 92       	push	r15
     ef6:	0f 93       	push	r16
     ef8:	1f 93       	push	r17
     efa:	7c 01       	movw	r14, r24
     efc:	16 2f       	mov	r17, r22
     efe:	d4 2e       	mov	r13, r20
     f00:	82 2f       	mov	r24, r18
     f02:	60 2f       	mov	r22, r16
  LCD_MOVE_TO(page,col);
     f04:	0e 94 8a 03 	call	0x714	; 0x714 <lcd_moveto_xy>
  return lcd_put_char(font,style,character);
     f08:	c7 01       	movw	r24, r14
     f0a:	61 2f       	mov	r22, r17
     f0c:	4d 2d       	mov	r20, r13
     f0e:	0e 94 1b 06 	call	0xc36	; 0xc36 <lcd_put_char>
  }
     f12:	1f 91       	pop	r17
     f14:	0f 91       	pop	r16
     f16:	ff 90       	pop	r15
     f18:	ef 90       	pop	r14
     f1a:	df 90       	pop	r13
     f1c:	08 95       	ret

00000f1e <lcd_putc_xy>:
  }

/******************************************************************************
 * Outputs a character on the display, using the global font and style
 */ 
uint8_t  lcd_putc_xy(char c, uint8_t page, uint8_t col) {
     f1e:	0f 93       	push	r16
     f20:	38 2f       	mov	r19, r24
     f22:	26 2f       	mov	r18, r22
     f24:	04 2f       	mov	r16, r20
  return lcd_put_char_xy(global_font_select, global_font_style, c, page, col);
     f26:	80 91 63 00 	lds	r24, 0x0063
     f2a:	90 91 64 00 	lds	r25, 0x0064
     f2e:	60 91 62 00 	lds	r22, 0x0062
     f32:	43 2f       	mov	r20, r19
     f34:	0e 94 78 07 	call	0xef0	; 0xef0 <lcd_put_char_xy>
  }  
     f38:	0f 91       	pop	r16
     f3a:	08 95       	ret

00000f3c <lcd_put_string_length>:
  
/******************************************************************************
 * Outputs a string on the display, using the given font and style, reading
 * length characters from the memory
 */ 
uint16_t lcd_put_string_length(FONT_P font, uint8_t style, char* str, uint8_t length) {
     f3c:	bf 92       	push	r11
     f3e:	cf 92       	push	r12
     f40:	df 92       	push	r13
     f42:	ef 92       	push	r14
     f44:	ff 92       	push	r15
     f46:	0f 93       	push	r16
     f48:	1f 93       	push	r17
     f4a:	cf 93       	push	r28
     f4c:	df 93       	push	r29
     f4e:	7c 01       	movw	r14, r24
     f50:	b6 2e       	mov	r11, r22
     f52:	d4 2e       	mov	r13, r20
     f54:	c2 2e       	mov	r12, r18
     f56:	24 2f       	mov	r18, r20
     f58:	35 2f       	mov	r19, r21
     f5a:	c9 01       	movw	r24, r18
     f5c:	8c 01       	movw	r16, r24
     f5e:	c0 e0       	ldi	r28, 0x00	; 0
     f60:	d0 e0       	ldi	r29, 0x00	; 0
     f62:	09 c0       	rjmp	.+18     	; 0xf76 <lcd_put_string_length+0x3a>
  unsigned char t;
  uint16_t total_len = 0;
  for(t=0;t<length;t++)
    total_len += lcd_put_char(font,style,*str++);
     f64:	f8 01       	movw	r30, r16
     f66:	41 91       	ld	r20, Z+
     f68:	8f 01       	movw	r16, r30
     f6a:	c7 01       	movw	r24, r14
     f6c:	6b 2d       	mov	r22, r11
     f6e:	0e 94 1b 06 	call	0xc36	; 0xc36 <lcd_put_char>
     f72:	c8 0f       	add	r28, r24
     f74:	d1 1d       	adc	r29, r1
 * length characters from the memory
 */ 
uint16_t lcd_put_string_length(FONT_P font, uint8_t style, char* str, uint8_t length) {
  unsigned char t;
  uint16_t total_len = 0;
  for(t=0;t<length;t++)
     f76:	80 2f       	mov	r24, r16
     f78:	8d 19       	sub	r24, r13
     f7a:	8c 15       	cp	r24, r12
     f7c:	98 f3       	brcs	.-26     	; 0xf64 <lcd_put_string_length+0x28>
    total_len += lcd_put_char(font,style,*str++);
  return total_len;
  }
     f7e:	ce 01       	movw	r24, r28
     f80:	df 91       	pop	r29
     f82:	cf 91       	pop	r28
     f84:	1f 91       	pop	r17
     f86:	0f 91       	pop	r16
     f88:	ff 90       	pop	r15
     f8a:	ef 90       	pop	r14
     f8c:	df 90       	pop	r13
     f8e:	cf 90       	pop	r12
     f90:	bf 90       	pop	r11
     f92:	08 95       	ret

00000f94 <lcd_put_string>:

  
/******************************************************************************
 * Outputs a string on the display, using the given font and style
 */
uint16_t lcd_put_string(FONT_P font, uint8_t style, char* str) {
     f94:	df 92       	push	r13
     f96:	ef 92       	push	r14
     f98:	ff 92       	push	r15
     f9a:	0f 93       	push	r16
     f9c:	1f 93       	push	r17
     f9e:	cf 93       	push	r28
     fa0:	df 93       	push	r29
     fa2:	7c 01       	movw	r14, r24
     fa4:	d6 2e       	mov	r13, r22
     fa6:	8a 01       	movw	r16, r20
     fa8:	c0 e0       	ldi	r28, 0x00	; 0
     faa:	d0 e0       	ldi	r29, 0x00	; 0
     fac:	06 c0       	rjmp	.+12     	; 0xfba <lcd_put_string+0x26>
  unsigned char t;
  uint16_t length = 0;
  while((t = *str++))
    length += lcd_put_char(font,style,t);
     fae:	c7 01       	movw	r24, r14
     fb0:	6d 2d       	mov	r22, r13
     fb2:	0e 94 1b 06 	call	0xc36	; 0xc36 <lcd_put_char>
     fb6:	c8 0f       	add	r28, r24
     fb8:	d1 1d       	adc	r29, r1
 * Outputs a string on the display, using the given font and style
 */
uint16_t lcd_put_string(FONT_P font, uint8_t style, char* str) {
  unsigned char t;
  uint16_t length = 0;
  while((t = *str++))
     fba:	f8 01       	movw	r30, r16
     fbc:	41 91       	ld	r20, Z+
     fbe:	8f 01       	movw	r16, r30
     fc0:	44 23       	and	r20, r20
     fc2:	a9 f7       	brne	.-22     	; 0xfae <lcd_put_string+0x1a>
    length += lcd_put_char(font,style,t);
  return length;
  }
     fc4:	ce 01       	movw	r24, r28
     fc6:	df 91       	pop	r29
     fc8:	cf 91       	pop	r28
     fca:	1f 91       	pop	r17
     fcc:	0f 91       	pop	r16
     fce:	ff 90       	pop	r15
     fd0:	ef 90       	pop	r14
     fd2:	df 90       	pop	r13
     fd4:	08 95       	ret

00000fd6 <lcd_put_short>:
  }  
  
/******************************************************************************
 * Outputs a 8bit signed integer on the display
 */   
uint16_t lcd_put_short (int8_t integer) {
     fd6:	0f 93       	push	r16
     fd8:	1f 93       	push	r17
     fda:	df 93       	push	r29
     fdc:	cf 93       	push	r28
     fde:	cd b7       	in	r28, 0x3d	; 61
     fe0:	de b7       	in	r29, 0x3e	; 62
     fe2:	2a 97       	sbiw	r28, 0x0a	; 10
     fe4:	0f b6       	in	r0, 0x3f	; 63
     fe6:	f8 94       	cli
     fe8:	de bf       	out	0x3e, r29	; 62
     fea:	0f be       	out	0x3f, r0	; 63
     fec:	cd bf       	out	0x3d, r28	; 61
  char buffer[10];
	itoa(integer, buffer, 10);
     fee:	99 27       	eor	r25, r25
     ff0:	87 fd       	sbrc	r24, 7
     ff2:	90 95       	com	r25
     ff4:	8e 01       	movw	r16, r28
     ff6:	0f 5f       	subi	r16, 0xFF	; 255
     ff8:	1f 4f       	sbci	r17, 0xFF	; 255
     ffa:	b8 01       	movw	r22, r16
     ffc:	4a e0       	ldi	r20, 0x0A	; 10
     ffe:	50 e0       	ldi	r21, 0x00	; 0
    1000:	0e 94 f9 08 	call	0x11f2	; 0x11f2 <itoa>
	return lcd_put_string(global_font_select, global_font_style, buffer);
    1004:	80 91 63 00 	lds	r24, 0x0063
    1008:	90 91 64 00 	lds	r25, 0x0064
    100c:	60 91 62 00 	lds	r22, 0x0062
    1010:	a8 01       	movw	r20, r16
    1012:	0e 94 ca 07 	call	0xf94	; 0xf94 <lcd_put_string>
  }    
    1016:	2a 96       	adiw	r28, 0x0a	; 10
    1018:	0f b6       	in	r0, 0x3f	; 63
    101a:	f8 94       	cli
    101c:	de bf       	out	0x3e, r29	; 62
    101e:	0f be       	out	0x3f, r0	; 63
    1020:	cd bf       	out	0x3d, r28	; 61
    1022:	cf 91       	pop	r28
    1024:	df 91       	pop	r29
    1026:	1f 91       	pop	r17
    1028:	0f 91       	pop	r16
    102a:	08 95       	ret

0000102c <lcd_put_uint>:

  
/******************************************************************************
 * Outputs a 16bit unsigned integer on the display // Added by Olli S.
 */   
uint16_t lcd_put_uint  (uint16_t integer) {
    102c:	0f 93       	push	r16
    102e:	1f 93       	push	r17
    1030:	df 93       	push	r29
    1032:	cf 93       	push	r28
    1034:	cd b7       	in	r28, 0x3d	; 61
    1036:	de b7       	in	r29, 0x3e	; 62
    1038:	2a 97       	sbiw	r28, 0x0a	; 10
    103a:	0f b6       	in	r0, 0x3f	; 63
    103c:	f8 94       	cli
    103e:	de bf       	out	0x3e, r29	; 62
    1040:	0f be       	out	0x3f, r0	; 63
    1042:	cd bf       	out	0x3d, r28	; 61
  char buffer[10];
	utoa(integer, buffer, 10);
    1044:	8e 01       	movw	r16, r28
    1046:	0f 5f       	subi	r16, 0xFF	; 255
    1048:	1f 4f       	sbci	r17, 0xFF	; 255
    104a:	b8 01       	movw	r22, r16
    104c:	4a e0       	ldi	r20, 0x0A	; 10
    104e:	50 e0       	ldi	r21, 0x00	; 0
    1050:	0e 94 4e 09 	call	0x129c	; 0x129c <utoa>
	return lcd_put_string(global_font_select, global_font_style, buffer);
    1054:	80 91 63 00 	lds	r24, 0x0063
    1058:	90 91 64 00 	lds	r25, 0x0064
    105c:	60 91 62 00 	lds	r22, 0x0062
    1060:	a8 01       	movw	r20, r16
    1062:	0e 94 ca 07 	call	0xf94	; 0xf94 <lcd_put_string>
  }  
    1066:	2a 96       	adiw	r28, 0x0a	; 10
    1068:	0f b6       	in	r0, 0x3f	; 63
    106a:	f8 94       	cli
    106c:	de bf       	out	0x3e, r29	; 62
    106e:	0f be       	out	0x3f, r0	; 63
    1070:	cd bf       	out	0x3d, r28	; 61
    1072:	cf 91       	pop	r28
    1074:	df 91       	pop	r29
    1076:	1f 91       	pop	r17
    1078:	0f 91       	pop	r16
    107a:	08 95       	ret

0000107c <lcd_put_int>:

  
/******************************************************************************
 * Outputs a 16bit signed integer on the display // Added by Olli S.
 */   
uint16_t lcd_put_int (int16_t integer) {
    107c:	0f 93       	push	r16
    107e:	1f 93       	push	r17
    1080:	df 93       	push	r29
    1082:	cf 93       	push	r28
    1084:	cd b7       	in	r28, 0x3d	; 61
    1086:	de b7       	in	r29, 0x3e	; 62
    1088:	2a 97       	sbiw	r28, 0x0a	; 10
    108a:	0f b6       	in	r0, 0x3f	; 63
    108c:	f8 94       	cli
    108e:	de bf       	out	0x3e, r29	; 62
    1090:	0f be       	out	0x3f, r0	; 63
    1092:	cd bf       	out	0x3d, r28	; 61
  char buffer[10];
	itoa(integer, buffer, 10);
    1094:	8e 01       	movw	r16, r28
    1096:	0f 5f       	subi	r16, 0xFF	; 255
    1098:	1f 4f       	sbci	r17, 0xFF	; 255
    109a:	b8 01       	movw	r22, r16
    109c:	4a e0       	ldi	r20, 0x0A	; 10
    109e:	50 e0       	ldi	r21, 0x00	; 0
    10a0:	0e 94 f9 08 	call	0x11f2	; 0x11f2 <itoa>
	return lcd_put_string(global_font_select, global_font_style, buffer);
    10a4:	80 91 63 00 	lds	r24, 0x0063
    10a8:	90 91 64 00 	lds	r25, 0x0064
    10ac:	60 91 62 00 	lds	r22, 0x0062
    10b0:	a8 01       	movw	r20, r16
    10b2:	0e 94 ca 07 	call	0xf94	; 0xf94 <lcd_put_string>
  }  
    10b6:	2a 96       	adiw	r28, 0x0a	; 10
    10b8:	0f b6       	in	r0, 0x3f	; 63
    10ba:	f8 94       	cli
    10bc:	de bf       	out	0x3e, r29	; 62
    10be:	0f be       	out	0x3f, r0	; 63
    10c0:	cd bf       	out	0x3d, r28	; 61
    10c2:	cf 91       	pop	r28
    10c4:	df 91       	pop	r29
    10c6:	1f 91       	pop	r17
    10c8:	0f 91       	pop	r16
    10ca:	08 95       	ret

000010cc <lcd_put_long>:

#if INCLUDE_INTEGER_OUTPUT == 1
/******************************************************************************
 * Outputs a 32bit signed integer on the display // Added by Olli S.
 */ 
uint16_t lcd_put_long  (int32_t integer) {
    10cc:	0f 93       	push	r16
    10ce:	1f 93       	push	r17
    10d0:	df 93       	push	r29
    10d2:	cf 93       	push	r28
    10d4:	cd b7       	in	r28, 0x3d	; 61
    10d6:	de b7       	in	r29, 0x3e	; 62
    10d8:	2a 97       	sbiw	r28, 0x0a	; 10
    10da:	0f b6       	in	r0, 0x3f	; 63
    10dc:	f8 94       	cli
    10de:	de bf       	out	0x3e, r29	; 62
    10e0:	0f be       	out	0x3f, r0	; 63
    10e2:	cd bf       	out	0x3d, r28	; 61
  char buffer[10];
	ltoa(integer, buffer, 10);
    10e4:	8e 01       	movw	r16, r28
    10e6:	0f 5f       	subi	r16, 0xFF	; 255
    10e8:	1f 4f       	sbci	r17, 0xFF	; 255
    10ea:	a8 01       	movw	r20, r16
    10ec:	2a e0       	ldi	r18, 0x0A	; 10
    10ee:	30 e0       	ldi	r19, 0x00	; 0
    10f0:	0e 94 1a 09 	call	0x1234	; 0x1234 <ltoa>
	return lcd_put_string(global_font_select, global_font_style, buffer);
    10f4:	80 91 63 00 	lds	r24, 0x0063
    10f8:	90 91 64 00 	lds	r25, 0x0064
    10fc:	60 91 62 00 	lds	r22, 0x0062
    1100:	a8 01       	movw	r20, r16
    1102:	0e 94 ca 07 	call	0xf94	; 0xf94 <lcd_put_string>
  }
    1106:	2a 96       	adiw	r28, 0x0a	; 10
    1108:	0f b6       	in	r0, 0x3f	; 63
    110a:	f8 94       	cli
    110c:	de bf       	out	0x3e, r29	; 62
    110e:	0f be       	out	0x3f, r0	; 63
    1110:	cd bf       	out	0x3d, r28	; 61
    1112:	cf 91       	pop	r28
    1114:	df 91       	pop	r29
    1116:	1f 91       	pop	r17
    1118:	0f 91       	pop	r16
    111a:	08 95       	ret

0000111c <lcd_putstr>:
  
  
/******************************************************************************
 * Outputs a string on the display, using the global font and style
 */   
uint16_t lcd_putstr(char* str) {
    111c:	ac 01       	movw	r20, r24
  return lcd_put_string(global_font_select, global_font_style, str);
    111e:	80 91 63 00 	lds	r24, 0x0063
    1122:	90 91 64 00 	lds	r25, 0x0064
    1126:	60 91 62 00 	lds	r22, 0x0062
    112a:	0e 94 ca 07 	call	0xf94	; 0xf94 <lcd_put_string>
  }
    112e:	08 95       	ret

00001130 <lcd_put_string_P>:

/******************************************************************************
 * Outputs a string on the display, loading it from the program memory,
 * using the given font and style
 */
uint16_t lcd_put_string_P(FONT_P font, uint8_t style, PGM_P str) {
    1130:	df 92       	push	r13
    1132:	ef 92       	push	r14
    1134:	ff 92       	push	r15
    1136:	0f 93       	push	r16
    1138:	1f 93       	push	r17
    113a:	cf 93       	push	r28
    113c:	df 93       	push	r29
    113e:	7c 01       	movw	r14, r24
    1140:	d6 2e       	mov	r13, r22
    1142:	8a 01       	movw	r16, r20
    1144:	c0 e0       	ldi	r28, 0x00	; 0
    1146:	d0 e0       	ldi	r29, 0x00	; 0
    1148:	06 c0       	rjmp	.+12     	; 0x1156 <lcd_put_string_P+0x26>
  unsigned char t;
  uint16_t length = 0;
  while((t = pgm_read_byte(str++))) 
    length += lcd_put_char(font,style,t);
    114a:	c7 01       	movw	r24, r14
    114c:	6d 2d       	mov	r22, r13
    114e:	0e 94 1b 06 	call	0xc36	; 0xc36 <lcd_put_char>
    1152:	c8 0f       	add	r28, r24
    1154:	d1 1d       	adc	r29, r1
    1156:	f8 01       	movw	r30, r16
 * using the given font and style
 */
uint16_t lcd_put_string_P(FONT_P font, uint8_t style, PGM_P str) {
  unsigned char t;
  uint16_t length = 0;
  while((t = pgm_read_byte(str++))) 
    1158:	0f 5f       	subi	r16, 0xFF	; 255
    115a:	1f 4f       	sbci	r17, 0xFF	; 255
    115c:	44 91       	lpm	r20, Z+
    115e:	44 23       	and	r20, r20
    1160:	a1 f7       	brne	.-24     	; 0x114a <lcd_put_string_P+0x1a>
    length += lcd_put_char(font,style,t);
  return length;
  }
    1162:	ce 01       	movw	r24, r28
    1164:	df 91       	pop	r29
    1166:	cf 91       	pop	r28
    1168:	1f 91       	pop	r17
    116a:	0f 91       	pop	r16
    116c:	ff 90       	pop	r15
    116e:	ef 90       	pop	r14
    1170:	df 90       	pop	r13
    1172:	08 95       	ret

00001174 <lcd_putstr_P>:
  
/******************************************************************************
 * Outputs a string stored in program memory on the display, using the global 
 * font and style
 */   
uint16_t lcd_putstr_P(PGM_P str) {
    1174:	ac 01       	movw	r20, r24
  return lcd_put_string_P(global_font_select, global_font_style, str);
    1176:	80 91 63 00 	lds	r24, 0x0063
    117a:	90 91 64 00 	lds	r25, 0x0064
    117e:	60 91 62 00 	lds	r22, 0x0062
    1182:	0e 94 98 08 	call	0x1130	; 0x1130 <lcd_put_string_P>
  }
    1186:	08 95       	ret

00001188 <lcd_put_string_xy_P>:
/******************************************************************************
 * Outputs a string on the display, using the given font and style, reading
 * the string from program memory. The position of the string on the display
 * is selected by page / col.
 */ 
uint16_t lcd_put_string_xy_P(FONT_P font, uint8_t style, PGM_P str,uint8_t page, uint8_t col) {
    1188:	cf 92       	push	r12
    118a:	df 92       	push	r13
    118c:	ef 92       	push	r14
    118e:	ff 92       	push	r15
    1190:	0f 93       	push	r16
    1192:	1f 93       	push	r17
    1194:	7c 01       	movw	r14, r24
    1196:	16 2f       	mov	r17, r22
    1198:	6a 01       	movw	r12, r20
    119a:	82 2f       	mov	r24, r18
    119c:	60 2f       	mov	r22, r16
  LCD_MOVE_TO(page,col);
    119e:	0e 94 8a 03 	call	0x714	; 0x714 <lcd_moveto_xy>
  return lcd_put_string_P(font,style,str);
    11a2:	c7 01       	movw	r24, r14
    11a4:	61 2f       	mov	r22, r17
    11a6:	a6 01       	movw	r20, r12
    11a8:	0e 94 98 08 	call	0x1130	; 0x1130 <lcd_put_string_P>
  }
    11ac:	1f 91       	pop	r17
    11ae:	0f 91       	pop	r16
    11b0:	ff 90       	pop	r15
    11b2:	ef 90       	pop	r14
    11b4:	df 90       	pop	r13
    11b6:	cf 90       	pop	r12
    11b8:	08 95       	ret

000011ba <lcd_putstr_xy_P>:

/******************************************************************************
 * Outputs a string on the display, using the global font and style at the 
 * given position
 */   
uint16_t lcd_putstr_xy_P(PGM_P  str, uint8_t page, uint8_t col) {
    11ba:	0f 93       	push	r16
    11bc:	fc 01       	movw	r30, r24
    11be:	26 2f       	mov	r18, r22
    11c0:	04 2f       	mov	r16, r20
  return lcd_put_string_xy_P(global_font_select, global_font_style, str, page, col);
    11c2:	80 91 63 00 	lds	r24, 0x0063
    11c6:	90 91 64 00 	lds	r25, 0x0064
    11ca:	60 91 62 00 	lds	r22, 0x0062
    11ce:	af 01       	movw	r20, r30
    11d0:	0e 94 c4 08 	call	0x1188	; 0x1188 <lcd_put_string_xy_P>
  }  
    11d4:	0f 91       	pop	r16
    11d6:	08 95       	ret

000011d8 <pwm_init>:

void pwm_init(void)
{

	//B.3 als Ausgang definieren = PWM Output Pin
	DDRB |= (1<<BIT3);			
    11d8:	bb 9a       	sbi	0x17, 3	; 23
	//PWM, Phase Correct, 8-bit
	//TOP: 255
	//Update of OCR1x: TOP
	//Timer Overflow Flag1 set on: BOTTOM
	//Der Timer/Counter zählt nun permanent von 0 bis zur 255 und wieder zurück. 
	TCCR0 |= (1<<WGM00);	
    11da:	83 b7       	in	r24, 0x33	; 51
    11dc:	80 64       	ori	r24, 0x40	; 64
    11de:	83 bf       	out	0x33, r24	; 51


	//Nicht invertierende PWM
	//- Clear OC0 on Compare Match when up-counting. 
	//- Set OC0 on Compare Match when downcounting.
	TCCR0 |= (1<<COM01); 
    11e0:	83 b7       	in	r24, 0x33	; 51
    11e2:	80 62       	ori	r24, 0x20	; 32
    11e4:	83 bf       	out	0x33, r24	; 51


    //Prescaler auf 256 setzen:
	TCCR0 |= (1<<CS02);
    11e6:	83 b7       	in	r24, 0x33	; 51
    11e8:	84 60       	ori	r24, 0x04	; 4
    11ea:	83 bf       	out	0x33, r24	; 51
	1 	1 	1 	Externer Pin 1, positive Flanke 
*/
	
	
	
}
    11ec:	08 95       	ret

000011ee <pwm_update>:

void pwm_update(int8_t compare)
{
	OCR0=compare;	//Vergleichswert laden
    11ee:	8c bf       	out	0x3c, r24	; 60
}
    11f0:	08 95       	ret

000011f2 <itoa>:
    11f2:	fb 01       	movw	r30, r22
    11f4:	9f 01       	movw	r18, r30
    11f6:	e8 94       	clt
    11f8:	42 30       	cpi	r20, 0x02	; 2
    11fa:	c4 f0       	brlt	.+48     	; 0x122c <itoa+0x3a>
    11fc:	45 32       	cpi	r20, 0x25	; 37
    11fe:	b4 f4       	brge	.+44     	; 0x122c <itoa+0x3a>
    1200:	4a 30       	cpi	r20, 0x0A	; 10
    1202:	29 f4       	brne	.+10     	; 0x120e <itoa+0x1c>
    1204:	97 fb       	bst	r25, 7
    1206:	1e f4       	brtc	.+6      	; 0x120e <itoa+0x1c>
    1208:	90 95       	com	r25
    120a:	81 95       	neg	r24
    120c:	9f 4f       	sbci	r25, 0xFF	; 255
    120e:	64 2f       	mov	r22, r20
    1210:	77 27       	eor	r23, r23
    1212:	0e 94 74 09 	call	0x12e8	; 0x12e8 <__udivmodhi4>
    1216:	80 5d       	subi	r24, 0xD0	; 208
    1218:	8a 33       	cpi	r24, 0x3A	; 58
    121a:	0c f0       	brlt	.+2      	; 0x121e <itoa+0x2c>
    121c:	89 5d       	subi	r24, 0xD9	; 217
    121e:	81 93       	st	Z+, r24
    1220:	cb 01       	movw	r24, r22
    1222:	00 97       	sbiw	r24, 0x00	; 0
    1224:	a1 f7       	brne	.-24     	; 0x120e <itoa+0x1c>
    1226:	16 f4       	brtc	.+4      	; 0x122c <itoa+0x3a>
    1228:	5d e2       	ldi	r21, 0x2D	; 45
    122a:	51 93       	st	Z+, r21
    122c:	10 82       	st	Z, r1
    122e:	c9 01       	movw	r24, r18
    1230:	0c 94 64 09 	jmp	0x12c8	; 0x12c8 <strrev>

00001234 <ltoa>:
    1234:	fa 01       	movw	r30, r20
    1236:	cf 93       	push	r28
    1238:	ff 93       	push	r31
    123a:	ef 93       	push	r30
    123c:	22 30       	cpi	r18, 0x02	; 2
    123e:	44 f1       	brlt	.+80     	; 0x1290 <ltoa+0x5c>
    1240:	25 32       	cpi	r18, 0x25	; 37
    1242:	34 f5       	brge	.+76     	; 0x1290 <ltoa+0x5c>
    1244:	c2 2f       	mov	r28, r18
    1246:	e8 94       	clt
    1248:	ca 30       	cpi	r28, 0x0A	; 10
    124a:	49 f4       	brne	.+18     	; 0x125e <ltoa+0x2a>
    124c:	97 fb       	bst	r25, 7
    124e:	3e f4       	brtc	.+14     	; 0x125e <ltoa+0x2a>
    1250:	90 95       	com	r25
    1252:	80 95       	com	r24
    1254:	70 95       	com	r23
    1256:	61 95       	neg	r22
    1258:	7f 4f       	sbci	r23, 0xFF	; 255
    125a:	8f 4f       	sbci	r24, 0xFF	; 255
    125c:	9f 4f       	sbci	r25, 0xFF	; 255
    125e:	2c 2f       	mov	r18, r28
    1260:	33 27       	eor	r19, r19
    1262:	44 27       	eor	r20, r20
    1264:	55 27       	eor	r21, r21
    1266:	ff 93       	push	r31
    1268:	ef 93       	push	r30
    126a:	0e 94 88 09 	call	0x1310	; 0x1310 <__udivmodsi4>
    126e:	ef 91       	pop	r30
    1270:	ff 91       	pop	r31
    1272:	60 5d       	subi	r22, 0xD0	; 208
    1274:	6a 33       	cpi	r22, 0x3A	; 58
    1276:	0c f0       	brlt	.+2      	; 0x127a <ltoa+0x46>
    1278:	69 5d       	subi	r22, 0xD9	; 217
    127a:	61 93       	st	Z+, r22
    127c:	b9 01       	movw	r22, r18
    127e:	ca 01       	movw	r24, r20
    1280:	60 50       	subi	r22, 0x00	; 0
    1282:	70 40       	sbci	r23, 0x00	; 0
    1284:	80 40       	sbci	r24, 0x00	; 0
    1286:	90 40       	sbci	r25, 0x00	; 0
    1288:	51 f7       	brne	.-44     	; 0x125e <ltoa+0x2a>
    128a:	16 f4       	brtc	.+4      	; 0x1290 <ltoa+0x5c>
    128c:	cd e2       	ldi	r28, 0x2D	; 45
    128e:	c1 93       	st	Z+, r28
    1290:	10 82       	st	Z, r1
    1292:	8f 91       	pop	r24
    1294:	9f 91       	pop	r25
    1296:	cf 91       	pop	r28
    1298:	0c 94 64 09 	jmp	0x12c8	; 0x12c8 <strrev>

0000129c <utoa>:
    129c:	fb 01       	movw	r30, r22
    129e:	9f 01       	movw	r18, r30
    12a0:	42 30       	cpi	r20, 0x02	; 2
    12a2:	74 f0       	brlt	.+28     	; 0x12c0 <utoa+0x24>
    12a4:	45 32       	cpi	r20, 0x25	; 37
    12a6:	64 f4       	brge	.+24     	; 0x12c0 <utoa+0x24>
    12a8:	64 2f       	mov	r22, r20
    12aa:	77 27       	eor	r23, r23
    12ac:	0e 94 74 09 	call	0x12e8	; 0x12e8 <__udivmodhi4>
    12b0:	80 5d       	subi	r24, 0xD0	; 208
    12b2:	8a 33       	cpi	r24, 0x3A	; 58
    12b4:	0c f0       	brlt	.+2      	; 0x12b8 <utoa+0x1c>
    12b6:	89 5d       	subi	r24, 0xD9	; 217
    12b8:	81 93       	st	Z+, r24
    12ba:	cb 01       	movw	r24, r22
    12bc:	00 97       	sbiw	r24, 0x00	; 0
    12be:	a1 f7       	brne	.-24     	; 0x12a8 <utoa+0xc>
    12c0:	10 82       	st	Z, r1
    12c2:	c9 01       	movw	r24, r18
    12c4:	0c 94 64 09 	jmp	0x12c8	; 0x12c8 <strrev>

000012c8 <strrev>:
    12c8:	dc 01       	movw	r26, r24
    12ca:	fc 01       	movw	r30, r24
    12cc:	67 2f       	mov	r22, r23
    12ce:	71 91       	ld	r23, Z+
    12d0:	77 23       	and	r23, r23
    12d2:	e1 f7       	brne	.-8      	; 0x12cc <strrev+0x4>
    12d4:	32 97       	sbiw	r30, 0x02	; 2
    12d6:	04 c0       	rjmp	.+8      	; 0x12e0 <strrev+0x18>
    12d8:	7c 91       	ld	r23, X
    12da:	6d 93       	st	X+, r22
    12dc:	70 83       	st	Z, r23
    12de:	62 91       	ld	r22, -Z
    12e0:	ae 17       	cp	r26, r30
    12e2:	bf 07       	cpc	r27, r31
    12e4:	c8 f3       	brcs	.-14     	; 0x12d8 <strrev+0x10>
    12e6:	08 95       	ret

000012e8 <__udivmodhi4>:
    12e8:	aa 1b       	sub	r26, r26
    12ea:	bb 1b       	sub	r27, r27
    12ec:	51 e1       	ldi	r21, 0x11	; 17
    12ee:	07 c0       	rjmp	.+14     	; 0x12fe <__udivmodhi4_ep>

000012f0 <__udivmodhi4_loop>:
    12f0:	aa 1f       	adc	r26, r26
    12f2:	bb 1f       	adc	r27, r27
    12f4:	a6 17       	cp	r26, r22
    12f6:	b7 07       	cpc	r27, r23
    12f8:	10 f0       	brcs	.+4      	; 0x12fe <__udivmodhi4_ep>
    12fa:	a6 1b       	sub	r26, r22
    12fc:	b7 0b       	sbc	r27, r23

000012fe <__udivmodhi4_ep>:
    12fe:	88 1f       	adc	r24, r24
    1300:	99 1f       	adc	r25, r25
    1302:	5a 95       	dec	r21
    1304:	a9 f7       	brne	.-22     	; 0x12f0 <__udivmodhi4_loop>
    1306:	80 95       	com	r24
    1308:	90 95       	com	r25
    130a:	bc 01       	movw	r22, r24
    130c:	cd 01       	movw	r24, r26
    130e:	08 95       	ret

00001310 <__udivmodsi4>:
    1310:	a1 e2       	ldi	r26, 0x21	; 33
    1312:	1a 2e       	mov	r1, r26
    1314:	aa 1b       	sub	r26, r26
    1316:	bb 1b       	sub	r27, r27
    1318:	fd 01       	movw	r30, r26
    131a:	0d c0       	rjmp	.+26     	; 0x1336 <__udivmodsi4_ep>

0000131c <__udivmodsi4_loop>:
    131c:	aa 1f       	adc	r26, r26
    131e:	bb 1f       	adc	r27, r27
    1320:	ee 1f       	adc	r30, r30
    1322:	ff 1f       	adc	r31, r31
    1324:	a2 17       	cp	r26, r18
    1326:	b3 07       	cpc	r27, r19
    1328:	e4 07       	cpc	r30, r20
    132a:	f5 07       	cpc	r31, r21
    132c:	20 f0       	brcs	.+8      	; 0x1336 <__udivmodsi4_ep>
    132e:	a2 1b       	sub	r26, r18
    1330:	b3 0b       	sbc	r27, r19
    1332:	e4 0b       	sbc	r30, r20
    1334:	f5 0b       	sbc	r31, r21

00001336 <__udivmodsi4_ep>:
    1336:	66 1f       	adc	r22, r22
    1338:	77 1f       	adc	r23, r23
    133a:	88 1f       	adc	r24, r24
    133c:	99 1f       	adc	r25, r25
    133e:	1a 94       	dec	r1
    1340:	69 f7       	brne	.-38     	; 0x131c <__udivmodsi4_loop>
    1342:	60 95       	com	r22
    1344:	70 95       	com	r23
    1346:	80 95       	com	r24
    1348:	90 95       	com	r25
    134a:	9b 01       	movw	r18, r22
    134c:	ac 01       	movw	r20, r24
    134e:	bd 01       	movw	r22, r26
    1350:	cf 01       	movw	r24, r30
    1352:	08 95       	ret

00001354 <_exit>:
    1354:	f8 94       	cli

00001356 <__stop_program>:
    1356:	ff cf       	rjmp	.-2      	; 0x1356 <__stop_program>
