
femtoOsTest.elf:     file format elf32-avr

Sections:
Idx Name          Size      VMA       LMA       File off  Algn
  0 .text         000033c4  00000000  00000000  00000094  2**1
                  CONTENTS, ALLOC, LOAD, READONLY, CODE
  1 .data         00000108  00800060  000033c4  00003458  2**0
                  CONTENTS, ALLOC, LOAD, DATA
  2 .bss          00000005  00800168  00800168  00003560  2**0
                  ALLOC
  3 .stab         00003174  00000000  00000000  00003560  2**2
                  CONTENTS, READONLY, DEBUGGING
  4 .stabstr      00000951  00000000  00000000  000066d4  2**0
                  CONTENTS, READONLY, DEBUGGING
  5 .debug_aranges 000002a0  00000000  00000000  00007025  2**0
                  CONTENTS, READONLY, DEBUGGING
  6 .debug_pubnames 00000751  00000000  00000000  000072c5  2**0
                  CONTENTS, READONLY, DEBUGGING
  7 .debug_info   000052a4  00000000  00000000  00007a16  2**0
                  CONTENTS, READONLY, DEBUGGING
  8 .debug_abbrev 00001fe3  00000000  00000000  0000ccba  2**0
                  CONTENTS, READONLY, DEBUGGING
  9 .debug_line   000075d5  00000000  00000000  0000ec9d  2**0
                  CONTENTS, READONLY, DEBUGGING
 10 .debug_frame  000005e0  00000000  00000000  00016274  2**2
                  CONTENTS, READONLY, DEBUGGING
 11 .debug_str    00000bbb  00000000  00000000  00016854  2**0
                  CONTENTS, READONLY, DEBUGGING
 12 .debug_loc    00003f88  00000000  00000000  0001740f  2**0
                  CONTENTS, READONLY, DEBUGGING
 13 .debug_macinfo 000a54f6  00000000  00000000  0001b397  2**0
                  CONTENTS, READONLY, DEBUGGING
 14 .debug_pubtypes 000009ad  00000000  00000000  000c088d  2**0
                  CONTENTS, READONLY, DEBUGGING
 15 .debug_ranges 00000218  00000000  00000000  000c123a  2**0
                  CONTENTS, READONLY, DEBUGGING

Disassembly of section .text:

00000000 <__vectors>:
       0:	0c 94 7f 03 	jmp	0x6fe	; 0x6fe <__ctors_end>
       4:	0c 94 9c 03 	jmp	0x738	; 0x738 <__bad_interrupt>
       8:	0c 94 9c 03 	jmp	0x738	; 0x738 <__bad_interrupt>
       c:	0c 94 9c 03 	jmp	0x738	; 0x738 <__bad_interrupt>
      10:	0c 94 9c 03 	jmp	0x738	; 0x738 <__bad_interrupt>
      14:	0c 94 9c 03 	jmp	0x738	; 0x738 <__bad_interrupt>
      18:	0c 94 9c 03 	jmp	0x738	; 0x738 <__bad_interrupt>
      1c:	0c 94 9c 03 	jmp	0x738	; 0x738 <__bad_interrupt>
      20:	0c 94 9c 03 	jmp	0x738	; 0x738 <__bad_interrupt>
      24:	0c 94 9c 03 	jmp	0x738	; 0x738 <__bad_interrupt>
      28:	0c 94 9c 03 	jmp	0x738	; 0x738 <__bad_interrupt>
      2c:	0c 94 9c 03 	jmp	0x738	; 0x738 <__bad_interrupt>
      30:	0c 94 9c 03 	jmp	0x738	; 0x738 <__bad_interrupt>
      34:	0c 94 9c 03 	jmp	0x738	; 0x738 <__bad_interrupt>
      38:	0c 94 9c 03 	jmp	0x738	; 0x738 <__bad_interrupt>
      3c:	0c 94 9c 03 	jmp	0x738	; 0x738 <__bad_interrupt>
      40:	0c 94 9c 03 	jmp	0x738	; 0x738 <__bad_interrupt>
      44:	0c 94 9c 03 	jmp	0x738	; 0x738 <__bad_interrupt>
      48:	0c 94 9c 03 	jmp	0x738	; 0x738 <__bad_interrupt>
      4c:	0c 94 9c 03 	jmp	0x738	; 0x738 <__bad_interrupt>
      50:	0c 94 9c 03 	jmp	0x738	; 0x738 <__bad_interrupt>
      54:	07 63       	ori	r16, 0x37	; 55
      56:	42 36       	cpi	r20, 0x62	; 98
      58:	b7 9b       	sbis	0x16, 7	; 22
      5a:	d8 a7       	std	Y+40, r29	; 0x28
      5c:	1a 39       	cpi	r17, 0x9A	; 154
      5e:	68 56       	subi	r22, 0x68	; 104
      60:	18 ae       	std	Y+56, r1	; 0x38
      62:	ba ab       	std	Y+50, r27	; 0x32
      64:	55 8c       	ldd	r5, Z+29	; 0x1d
      66:	1d 3c       	cpi	r17, 0xCD	; 205
      68:	b7 cc       	rjmp	.-1682   	; 0xfffff9d8 <__eeprom_end+0xff7ef9d8>
      6a:	57 63       	ori	r21, 0x37	; 55
      6c:	bd 6d       	ori	r27, 0xDD	; 221
      6e:	ed fd       	.word	0xfded	; ????
      70:	75 3e       	cpi	r23, 0xE5	; 229
      72:	f6 17       	cp	r31, r22
      74:	72 31       	cpi	r23, 0x12	; 18
      76:	bf 00       	.word	0x00bf	; ????
      78:	00 00       	nop
      7a:	80 3f       	cpi	r24, 0xF0	; 240
      7c:	08 00       	.word	0x0008	; ????
      7e:	00 00       	nop
      80:	be 92       	st	-X, r11
      82:	24 49       	sbci	r18, 0x94	; 148
      84:	12 3e       	cpi	r17, 0xE2	; 226
      86:	ab aa       	std	Y+51, r10	; 0x33
      88:	aa 2a       	or	r10, r26
      8a:	be cd       	rjmp	.-1156   	; 0xfffffc08 <__eeprom_end+0xff7efc08>
      8c:	cc cc       	rjmp	.-1640   	; 0xfffffa26 <__eeprom_end+0xff7efa26>
      8e:	4c 3e       	cpi	r20, 0xEC	; 236
      90:	00 00       	nop
      92:	00 80       	ld	r0, Z
      94:	be ab       	std	Y+54, r27	; 0x36
      96:	aa aa       	std	Y+50, r10	; 0x32
      98:	aa 3e       	cpi	r26, 0xEA	; 234
      9a:	00 00       	nop
      9c:	00 00       	nop
      9e:	bf 00       	.word	0x00bf	; ????
      a0:	00 00       	nop
      a2:	80 3f       	cpi	r24, 0xF0	; 240
      a4:	00 00       	nop
      a6:	00 00       	nop
      a8:	00 08       	sbc	r0, r0
      aa:	41 78       	andi	r20, 0x81	; 129
      ac:	d3 bb       	out	0x13, r29	; 19
      ae:	43 87       	std	Z+11, r20	; 0x0b
      b0:	d1 13       	cpse	r29, r17
      b2:	3d 19       	sub	r19, r13
      b4:	0e 3c       	cpi	r16, 0xCE	; 206
      b6:	c3 bd       	out	0x23, r28	; 35
      b8:	42 82       	std	Z+2, r4	; 0x02
      ba:	ad 2b       	or	r26, r29
      bc:	3e 68       	ori	r19, 0x8E	; 142
      be:	ec 82       	std	Y+4, r14	; 0x04
      c0:	76 be       	out	0x36, r7	; 54
      c2:	d9 8f       	std	Y+25, r29	; 0x19
      c4:	e1 a9       	ldd	r30, Z+49	; 0x31
      c6:	3e 4c       	sbci	r19, 0xCE	; 206
      c8:	80 ef       	ldi	r24, 0xF0	; 240
      ca:	ff be       	out	0x3f, r15	; 63
      cc:	01 c4       	rjmp	.+2050   	; 0x8d0 <bmp085ReadShort+0x66>
      ce:	ff 7f       	andi	r31, 0xFF	; 255
      d0:	3f 00       	.word	0x003f	; ????
      d2:	00 00       	nop
	...

000000d6 <__c.2139>:
      d6:	41 6c 74 69 74 75 64 65 3a 20 00                    Altitude: .

000000e1 <__c.2137>:
      e1:	50 72 65 73 73 75 72 65 3a 20 00                    Pressure: .

000000ec <__c.2135>:
      ec:	54 65 6d 70 3a 20 00                                Temp: .

000000f3 <font_fixed_8px_data>:
      f3:	00 00 00 00 00 00 00 3e 45 51 45 3e 00 3e 6b 6f     .......>EQE>.>ko
     103:	6b 3e 00 1c 3e 7c 3e 1c 00 18 3c 7e 3c 18 00 30     k>..>|>...<~<..0
     113:	36 7f 36 30 00 18 5c 7e 5c 18 00 00 00 00 00 00     6.60..\~\.......
	...
     133:	00 00 00 30 48 4a 36 0e 00 06 29 79 29 06 00 00     ...0HJ6...)y)...
     143:	00 00 00 00 00 60 7e 0a 35 3f 00 2a 1c 36 1c 2a     .....`~.5?.*.6.*
     153:	00 00 7f 3e 1c 08 00 08 1c 3e 7f 00 00 14 36 7f     ...>.....>....6.
     163:	36 14 00 00 5f 00 5f 00 00 06 09 7f 01 7f 00 22     6..._._........"
     173:	4d 55 59 22 00 60 60 60 60 00 00 14 b6 ff b6 14     MUY".````.......
     183:	00 04 06 7f 06 04 00 10 30 7f 30 10 00 08 08 3e     ........0.0....>
     193:	1c 08 00 08 1c 3e 08 08 00 78 40 40 40 40 00 08     .....>...x@@@@..
     1a3:	3e 08 3e 08 00 30 3c 3f 3c 30 00 03 0f 3f 0f 03     >.>..0<?<0...?..
	...
     1bb:	06 5f 06 00 00 07 03 00 07 03 00 24 7e 24 7e 24     ._.........$~$~$
     1cb:	00 24 2b 6a 12 00 00 63 13 08 64 63 00 36 49 56     .$+j...c..dc.6IV
     1db:	20 50 00 00 07 03 00 00 00 00 3e 41 00 00 00 00      P........>A....
     1eb:	41 3e 00 00 00 08 3e 1c 3e 08 00 08 08 3e 08 08     A>....>.>....>..
     1fb:	00 00 e0 60 00 00 00 08 08 08 08 08 00 00 60 60     ...`..........``
     20b:	00 00 00 20 10 08 04 02 00 3e 51 49 45 3e 00 00     ... .....>QIE>..
     21b:	42 7f 40 00 00 62 51 49 49 46 00 22 49 49 49 36     B.@..bQIIF."III6
     22b:	00 18 14 12 7f 10 00 2f 49 49 49 31 00 3c 4a 49     ......./III1.<JI
     23b:	49 30 00 01 71 09 05 03 00 36 49 49 49 36 00 06     I0..q....6III6..
     24b:	49 49 29 1e 00 00 6c 6c 00 00 00 00 ec 6c 00 00     II)...ll.....l..
     25b:	00 08 14 22 41 00 00 24 24 24 24 24 00 00 41 22     ..."A..$$$$$..A"
     26b:	14 08 00 02 01 59 09 06 00 3e 41 5d 55 1e 00 7e     .....Y...>A]U..~
     27b:	11 11 11 7e 00 7f 49 49 49 36 00 3e 41 41 41 22     ...~..III6.>AAA"
     28b:	00 7f 41 41 41 3e 00 7f 49 49 49 41 00 7f 09 09     ..AAA>..IIIA....
     29b:	09 01 00 3e 41 49 49 7a 00 7f 08 08 08 7f 00 00     ...>AIIz........
     2ab:	41 7f 41 00 00 30 40 40 40 3f 00 7f 08 14 22 41     A.A..0@@@?...."A
     2bb:	00 7f 40 40 40 40 00 7f 02 04 02 7f 00 7f 02 04     ..@@@@..........
     2cb:	08 7f 00 3e 41 41 41 3e 00 7f 09 09 09 06 00 3e     ...>AAA>.......>
     2db:	41 51 21 5e 00 7f 09 09 19 66 00 26 49 49 49 32     AQ!^.....f.&III2
     2eb:	00 01 01 7f 01 01 00 3f 40 40 40 3f 00 1f 20 40     .......?@@@?.. @
     2fb:	20 1f 00 3f 40 3c 40 3f 00 63 14 08 14 63 00 07      ..?@<@?.c...c..
     30b:	08 70 08 07 00 71 49 45 43 00 00 00 7f 41 41 00     .p...qIEC....AA.
     31b:	00 02 04 08 10 20 00 00 41 41 7f 00 00 04 02 01     ..... ..AA......
     32b:	02 04 80 80 80 80 80 80 00 00 03 07 00 00 00 20     ............... 
     33b:	54 54 54 78 00 7f 44 44 44 38 00 38 44 44 44 28     TTTx..DDD8.8DDD(
     34b:	00 38 44 44 44 7f 00 38 54 54 54 08 00 08 7e 09     .8DDD..8TTT...~.
     35b:	09 00 00 18 a4 a4 a4 7c 00 7f 04 04 78 00 00 00     .......|....x...
     36b:	00 7d 40 00 00 40 80 84 7d 00 00 7f 10 28 44 00     .}@..@..}....(D.
     37b:	00 00 00 7f 40 00 00 7c 04 18 04 78 00 7c 04 04     ....@..|...x.|..
     38b:	78 00 00 38 44 44 44 38 00 fc 44 44 44 38 00 38     x..8DDD8..DDD8.8
     39b:	44 44 44 fc 00 44 78 44 04 08 00 08 54 54 54 20     DDD..DxD....TTT 
     3ab:	00 04 3e 44 24 00 00 3c 40 20 7c 00 00 1c 20 40     ..>D$..<@ |... @
     3bb:	20 1c 00 3c 60 30 60 3c 00 6c 10 10 6c 00 00 9c      ..<`0`<.l..l...
     3cb:	a0 60 3c 00 00 64 54 54 4c 00 00 08 3e 41 41 00     .`<..dTTL...>AA.
     3db:	00 00 00 77 00 00 00 00 41 41 3e 08 00 02 01 02     ...w....AA>.....
     3eb:	01 00 00 3c 26 23 26 3c 00 1e a1 e1 21 12 00 3d     ...<&#&<....!..=
     3fb:	40 20 7d 00 00 38 54 54 55 09 00 20 55 55 55 78     @ }..8TTU.. UUUx
     40b:	00 20 55 54 55 78 00 20 55 55 54 78 00 20 57 55     . UTUx. UUTx. WU
     41b:	57 78 00 1c a2 e2 22 14 00 38 55 55 55 08 00 38     Wx...."..8UUU..8
     42b:	55 54 55 08 00 38 55 55 54 08 00 00 01 7c 41 00     UTU..8UUT....|A.
     43b:	00 00 01 7d 41 00 00 00 01 7c 40 00 00 70 29 24     ...}A....|@..p)$
     44b:	29 70 00 78 2f 25 2f 78 00 7c 54 54 55 45 00 34     )p.x/%/x.|TTUE.4
     45b:	54 7c 54 58 00 7e 09 7f 49 49 00 38 45 45 39 00     T|TX.~..II.8EE9.
     46b:	00 38 45 44 39 00 00 39 45 44 38 00 00 3c 41 21     .8ED9..9ED8..<A!
     47b:	7d 00 00 3d 41 20 7c 00 00 9c a1 60 3d 00 00 3d     }..=A |....`=..=
     48b:	42 42 3d 00 00 3c 41 40 3d 00 80 70 68 58 38 04     BB=..<A@=..phX8.
     49b:	00 48 3e 49 49 62 00 7e 61 5d 43 3f 00 22 14 08     .H>IIb.~a]C?."..
     4ab:	14 22 00 40 88 7e 09 02 00 20 54 55 55 78 00 00     .".@.~... TUUx..
     4bb:	00 7d 41 00 00 38 44 45 39 00 00 3c 40 21 7d 00     .}A..8DE9..<@!}.
     4cb:	00 7a 09 0a 71 00 00 7a 11 22 79 00 00 08 55 55     .z..q..z."y...UU
     4db:	55 5e 00 4e 51 51 4e 00 00 30 48 4d 40 20 3e 41     U^.NQQN..0HM@ >A
     4eb:	5d 4b 55 3e 04 04 04 04 04 1c 00 17 08 4c 6a 50     ]KU>.........LjP
     4fb:	00 17 08 34 2a 78 00 00 30 7d 30 00 00 08 14 00     ...4*x..0}0.....
     50b:	08 14 00 14 08 00 14 08 44 11 44 11 44 11 aa 55     ........D.D.D..U
     51b:	aa 55 aa 55 bb ee bb ee bb ee 00 00 00 ff 00 00     .U.U............
     52b:	08 08 08 ff 00 00 00 70 28 25 29 70 00 70 29 25     .......p(%)p.p)%
     53b:	29 70 00 70 29 25 28 70 3e 41 5d 55 41 3e 0a fb     )p.p)%(p>A]UA>..
     54b:	00 ff 00 00 00 ff 00 ff 00 00 0a fa 02 fe 00 00     ................
     55b:	0a 0b 08 0f 00 00 00 18 24 66 24 00 00 29 2a 7c     ........$f$..)*|
     56b:	2a 29 08 08 08 f8 00 00 00 00 00 0f 08 08 08 08     *)..............
     57b:	08 0f 08 08 08 08 08 f8 08 08 00 00 00 ff 08 08     ................
     58b:	08 08 08 08 08 08 08 08 08 ff 08 08 00 20 56 55     ............. VU
     59b:	56 79 00 70 2a 25 2a 71 00 0f 08 0b 0a 0a 00 fe     Vy.p*%*q........
     5ab:	02 fa 0a 0a 0a 0b 08 0b 0a 0a 0a fa 02 fa 0a 0a     ................
     5bb:	00 ff 00 fb 0a 0a 0a 0a 0a 0a 0a 0a 0a fb 00 fb     ................
     5cb:	0a 0a 00 5d 22 22 22 5d 00 22 55 59 30 00 00 08     ...]"""]."UY0...
     5db:	7f 49 41 3e 00 7c 55 55 55 44 00 7c 55 54 55 44     .IA>.|UUUD.|UTUD
     5eb:	00 7c 55 55 54 44 00 00 00 07 00 00 00 00 44 7d     .|UUTD........D}
     5fb:	45 00 00 00 45 7d 45 00 00 00 45 7c 45 00 08 08     E...E}E...E|E...
     60b:	08 0f 00 00 00 00 00 f8 08 08 ff ff ff ff ff ff     ................
     61b:	f0 f0 f0 f0 f0 f0 00 00 00 77 00 00 00 00 45 7d     .........w....E}
     62b:	44 00 0f 0f 0f 0f 0f 0f 00 3c 42 43 3d 00 00 fe     D........<BC=...
     63b:	4a 4a 34 00 00 3c 43 43 3d 00 00 3d 43 42 3c 00     JJ4..<CC=..=CB<.
     64b:	00 32 49 4a 31 00 00 3a 45 46 39 00 00 fc 20 20     .2IJ1..:EF9...  
     65b:	1c 00 00 fe aa 28 10 00 00 ff a5 24 18 00 00 3c     .....(.....$...<
     66b:	40 41 3d 00 00 3c 41 41 3d 00 00 3d 41 40 3c 00     @A=..<AA=..=A@<.
     67b:	00 9c a0 61 3d 00 00 04 08 71 09 04 00 00 02 02     ...a=....q......
     68b:	02 00 00 00 07 03 00 00 00 00 08 08 08 00 00 00     ................
     69b:	24 2e 24 00 00 24 24 24 24 24 05 17 0a 34 2a 78     $.$..$$$$$...4*x
     6ab:	00 06 09 7f 01 7f 00 22 4d 55 59 22 00 08 08 2a     ......."MUY"...*
     6bb:	08 08 00 00 08 18 18 00 00 06 09 09 06 00 00 00     ................
     6cb:	08 00 08 00 00 00 08 00 00 00 00 02 0f 00 00 00     ................
     6db:	00 09 0f 05 00 00 00 09 0d 0a 00 00 00 3c 3c 3c     .............<<<
     6eb:	3c 00 00 00 00 00 00 00                             <.......

000006f3 <font_fixed_8px>:
     6f3:	00 06 06 08 00 ff 00 00 f3 00 00                    ...........

000006fe <__ctors_end>:
     6fe:	11 24       	eor	r1, r1
     700:	1f be       	out	0x3f, r1	; 63
     702:	cf e5       	ldi	r28, 0x5F	; 95
     704:	d8 e0       	ldi	r29, 0x08	; 8
     706:	de bf       	out	0x3e, r29	; 62
     708:	cd bf       	out	0x3d, r28	; 61

0000070a <__do_clear_bss>:
     70a:	11 e0       	ldi	r17, 0x01	; 1
     70c:	a8 e6       	ldi	r26, 0x68	; 104
     70e:	b1 e0       	ldi	r27, 0x01	; 1
     710:	01 c0       	rjmp	.+2      	; 0x714 <.do_clear_bss_start>

00000712 <.do_clear_bss_loop>:
     712:	1d 92       	st	X+, r1

00000714 <.do_clear_bss_start>:
     714:	ad 36       	cpi	r26, 0x6D	; 109
     716:	b1 07       	cpc	r27, r17
     718:	e1 f7       	brne	.-8      	; 0x712 <.do_clear_bss_loop>

0000071a <__do_copy_data>:
     71a:	11 e0       	ldi	r17, 0x01	; 1
     71c:	a0 e6       	ldi	r26, 0x60	; 96
     71e:	b0 e0       	ldi	r27, 0x00	; 0
     720:	e4 ec       	ldi	r30, 0xC4	; 196
     722:	f3 e3       	ldi	r31, 0x33	; 51
     724:	02 c0       	rjmp	.+4      	; 0x72a <__do_copy_data+0x10>
     726:	05 90       	lpm	r0, Z+
     728:	0d 92       	st	X+, r0
     72a:	a8 36       	cpi	r26, 0x68	; 104
     72c:	b1 07       	cpc	r27, r17
     72e:	d9 f7       	brne	.-10     	; 0x726 <__do_copy_data+0xc>
     730:	0e 94 9e 03 	call	0x73c	; 0x73c <main>
     734:	0c 94 e0 19 	jmp	0x33c0	; 0x33c0 <_exit>

00000738 <__bad_interrupt>:
     738:	0c 94 00 00 	jmp	0	; 0x0 <__vectors>

0000073c <main>:
//#########################################
//#########################################
//#########################################
// S T A R T  M A I N  P R O G R A M 
int main(void)
{	
     73c:	4f 92       	push	r4
     73e:	5f 92       	push	r5
     740:	6f 92       	push	r6
     742:	7f 92       	push	r7
     744:	8f 92       	push	r8
     746:	9f 92       	push	r9
     748:	af 92       	push	r10
     74a:	bf 92       	push	r11
     74c:	cf 92       	push	r12
     74e:	df 92       	push	r13
     750:	ef 92       	push	r14
     752:	ff 92       	push	r15
     754:	0f 93       	push	r16
     756:	1f 93       	push	r17
     758:	df 93       	push	r29
     75a:	cf 93       	push	r28
     75c:	cd b7       	in	r28, 0x3d	; 61
     75e:	de b7       	in	r29, 0x3e	; 62
     760:	6f 97       	sbiw	r28, 0x1f	; 31
     762:	0f b6       	in	r0, 0x3f	; 63
     764:	f8 94       	cli
     766:	de bf       	out	0x3e, r29	; 62
     768:	0f be       	out	0x3f, r0	; 63
     76a:	cd bf       	out	0x3d, r28	; 61

//-----------------------------------------
// Allocate memory
//-----------------------------------------	
	int32_t temperature = 0;
     76c:	1a 82       	std	Y+2, r1	; 0x02
     76e:	1b 82       	std	Y+3, r1	; 0x03
     770:	1c 82       	std	Y+4, r1	; 0x04
     772:	1d 82       	std	Y+5, r1	; 0x05
	int32_t pressure = 0;
     774:	1e 82       	std	Y+6, r1	; 0x06
     776:	1f 82       	std	Y+7, r1	; 0x07
     778:	18 86       	std	Y+8, r1	; 0x08
     77a:	19 86       	std	Y+9, r1	; 0x09
	int16_t BMP085_calibration_int16_t[8];
	int16_t BMP085_calibration_uint16_t[3];
	uint8_t error_code=0;
     77c:	19 82       	std	Y+1, r1	; 0x01
	#else
		//round up by default
		__ticks_dc = (uint32_t)(ceil(fabs(__tmp)));
	#endif

	__builtin_avr_delay_cycles(__ticks_dc);
     77e:	8f ee       	ldi	r24, 0xEF	; 239
     780:	95 e5       	ldi	r25, 0x55	; 85
     782:	01 97       	sbiw	r24, 0x01	; 1
     784:	f1 f7       	brne	.-4      	; 0x782 <main+0x46>
     786:	00 c0       	rjmp	.+0      	; 0x788 <main+0x4c>
     788:	00 00       	nop
	//uart_init();				//Initialize UART0
	volatile int16_t testVar;
	

	_delay_ms(11);
	i2cSetBitrate(1000);		//Initialize TWI 1000kHz	
     78a:	88 ee       	ldi	r24, 0xE8	; 232
     78c:	93 e0       	ldi	r25, 0x03	; 3
     78e:	0e 94 d4 0e 	call	0x1da8	; 0x1da8 <i2cSetBitrate>
	BMP085_Calibration(BMP085_calibration_int16_t, BMP085_calibration_uint16_t,&error_code);////Initialize BMP085
     792:	30 e1       	ldi	r19, 0x10	; 16
     794:	a3 2e       	mov	r10, r19
     796:	b1 2c       	mov	r11, r1
     798:	ac 0e       	add	r10, r28
     79a:	bd 1e       	adc	r11, r29
     79c:	2a e0       	ldi	r18, 0x0A	; 10
     79e:	82 2e       	mov	r8, r18
     7a0:	91 2c       	mov	r9, r1
     7a2:	8c 0e       	add	r8, r28
     7a4:	9d 1e       	adc	r9, r29
     7a6:	c5 01       	movw	r24, r10
     7a8:	b4 01       	movw	r22, r8
     7aa:	6e 01       	movw	r12, r28
     7ac:	08 94       	sec
     7ae:	c1 1c       	adc	r12, r1
     7b0:	d1 1c       	adc	r13, r1
     7b2:	a6 01       	movw	r20, r12
     7b4:	0e 94 82 07 	call	0xf04	; 0xf04 <BMP085_Calibration>
	lcd_init();
     7b8:	0e 94 ab 0a 	call	0x1556	; 0x1556 <lcd_init>
	lcd_set_font(FONT_FIXED_8,NORMAL);
     7bc:	83 ef       	ldi	r24, 0xF3	; 243
     7be:	96 e0       	ldi	r25, 0x06	; 6
     7c0:	60 e0       	ldi	r22, 0x00	; 0
     7c2:	0e 94 02 0b 	call	0x1604	; 0x1604 <lcd_set_font>
     7c6:	92 e0       	ldi	r25, 0x02	; 2
     7c8:	69 2e       	mov	r6, r25
     7ca:	71 2c       	mov	r7, r1
     7cc:	6c 0e       	add	r6, r28
     7ce:	7d 1e       	adc	r7, r29
     7d0:	86 e0       	ldi	r24, 0x06	; 6
     7d2:	48 2e       	mov	r4, r24
     7d4:	51 2c       	mov	r5, r1
     7d6:	4c 0e       	add	r4, r28
     7d8:	5d 1e       	adc	r5, r29
		printf("Temperature raw %ld \n",bmp085ReadTemp(&error_code));
		printf("error code global: %d \n",error_code);
		printf("------------------------\n");
		printf("------------------------\n");
		*/
		bmp085Convert(BMP085_calibration_int16_t, BMP085_calibration_uint16_t,&temperature, &pressure,&error_code);
     7da:	c5 01       	movw	r24, r10
     7dc:	b4 01       	movw	r22, r8
     7de:	a3 01       	movw	r20, r6
     7e0:	92 01       	movw	r18, r4
     7e2:	86 01       	movw	r16, r12
     7e4:	0e 94 a4 05 	call	0xb48	; 0xb48 <bmp085Convert>
		
		
		lcd_moveto_xy  (1, 0);		
     7e8:	81 e0       	ldi	r24, 0x01	; 1
     7ea:	60 e0       	ldi	r22, 0x00	; 0
     7ec:	0e 94 f1 08 	call	0x11e2	; 0x11e2 <lcd_moveto_xy>
		lcd_put_string_P(FONT_FIXED_8, NORMAL, PSTR("Temp: "));
     7f0:	83 ef       	ldi	r24, 0xF3	; 243
     7f2:	96 e0       	ldi	r25, 0x06	; 6
     7f4:	60 e0       	ldi	r22, 0x00	; 0
     7f6:	4c ee       	ldi	r20, 0xEC	; 236
     7f8:	50 e0       	ldi	r21, 0x00	; 0
     7fa:	0e 94 3b 0d 	call	0x1a76	; 0x1a76 <lcd_put_string_P>
		lcd_put_int((int16_t)temperature);
     7fe:	8a 81       	ldd	r24, Y+2	; 0x02
     800:	9b 81       	ldd	r25, Y+3	; 0x03
     802:	0e 94 59 0e 	call	0x1cb2	; 0x1cb2 <lcd_put_int>

		lcd_moveto_xy  (2, 0);		
     806:	82 e0       	ldi	r24, 0x02	; 2
     808:	60 e0       	ldi	r22, 0x00	; 0
     80a:	0e 94 f1 08 	call	0x11e2	; 0x11e2 <lcd_moveto_xy>
		lcd_put_string_P(FONT_FIXED_8, NORMAL, PSTR("Pressure: "));
     80e:	83 ef       	ldi	r24, 0xF3	; 243
     810:	96 e0       	ldi	r25, 0x06	; 6
     812:	60 e0       	ldi	r22, 0x00	; 0
     814:	41 ee       	ldi	r20, 0xE1	; 225
     816:	50 e0       	ldi	r21, 0x00	; 0
     818:	0e 94 3b 0d 	call	0x1a76	; 0x1a76 <lcd_put_string_P>
		lcd_put_int((int16_t)pressure);
     81c:	8e 81       	ldd	r24, Y+6	; 0x06
     81e:	9f 81       	ldd	r25, Y+7	; 0x07
     820:	0e 94 59 0e 	call	0x1cb2	; 0x1cb2 <lcd_put_int>
	
		altitude = bmp085CalcAltitude (pressure);
     824:	6e 81       	ldd	r22, Y+6	; 0x06
     826:	7f 81       	ldd	r23, Y+7	; 0x07
     828:	88 85       	ldd	r24, Y+8	; 0x08
     82a:	99 85       	ldd	r25, Y+9	; 0x09
     82c:	0e 94 0e 08 	call	0x101c	; 0x101c <bmp085CalcAltitude>
     830:	7b 01       	movw	r14, r22
     832:	8c 01       	movw	r16, r24
		
		lcd_moveto_xy  (3, 0);		
     834:	83 e0       	ldi	r24, 0x03	; 3
     836:	60 e0       	ldi	r22, 0x00	; 0
     838:	0e 94 f1 08 	call	0x11e2	; 0x11e2 <lcd_moveto_xy>
		lcd_put_string_P(FONT_FIXED_8, NORMAL, PSTR("Altitude: "));
     83c:	83 ef       	ldi	r24, 0xF3	; 243
     83e:	96 e0       	ldi	r25, 0x06	; 6
     840:	60 e0       	ldi	r22, 0x00	; 0
     842:	46 ed       	ldi	r20, 0xD6	; 214
     844:	50 e0       	ldi	r21, 0x00	; 0
     846:	0e 94 3b 0d 	call	0x1a76	; 0x1a76 <lcd_put_string_P>
		lcd_put_int((int16_t)altitude);
     84a:	c7 01       	movw	r24, r14
     84c:	0e 94 59 0e 	call	0x1cb2	; 0x1cb2 <lcd_put_int>
     850:	8f ef       	ldi	r24, 0xFF	; 255
     852:	91 ee       	ldi	r25, 0xE1	; 225
     854:	a4 e0       	ldi	r26, 0x04	; 4
     856:	81 50       	subi	r24, 0x01	; 1
     858:	90 40       	sbci	r25, 0x00	; 0
     85a:	a0 40       	sbci	r26, 0x00	; 0
     85c:	e1 f7       	brne	.-8      	; 0x856 <main+0x11a>
     85e:	00 c0       	rjmp	.+0      	; 0x860 <__stack+0x1>
     860:	00 00       	nop
     862:	bb cf       	rjmp	.-138    	; 0x7da <main+0x9e>

00000864 <input_init>:
//----------------------------------------
// 
//----------------------------------------
void input_init()
{
	input_DDR &= ~(1<<BMP085_pin);//Input
     864:	a2 98       	cbi	0x14, 2	; 20
	input_PORT |= (1<<BMP085_pin);//Enable PullUp
     866:	aa 9a       	sbi	0x15, 2	; 21
}
     868:	08 95       	ret

0000086a <bmp085ReadShort>:
//----------------------------------------
// 
//----------------------------------------
uint16_t bmp085ReadShort(uint8_t address, uint8_t* error_code)
{
     86a:	ff 92       	push	r15
     86c:	0f 93       	push	r16
     86e:	1f 93       	push	r17
     870:	cf 93       	push	r28
     872:	df 93       	push	r29
     874:	08 2f       	mov	r16, r24
     876:	eb 01       	movw	r28, r22
	uint16_t msb=0;
	uint16_t lsb=0;
	uint16_t data;
	//Send Start Condition
	i2cSendStart();	
     878:	0e 94 f9 0e 	call	0x1df2	; 0x1df2 <i2cSendStart>
	*error_code=i2cWaitForComplete();
     87c:	0e 94 23 0f 	call	0x1e46	; 0x1e46 <i2cWaitForComplete>
     880:	88 83       	st	Y, r24
	if (*error_code==0){
     882:	88 23       	and	r24, r24
     884:	49 f0       	breq	.+18     	; 0x898 <bmp085ReadShort+0x2e>
	if (*error_code==0){	
		i2cReceiveByteACK();
		*error_code=i2cWaitForComplete();
	}
	//printf("error code: %d \n",error_code);
	if (*error_code==0){	
     886:	00 e0       	ldi	r16, 0x00	; 0
     888:	10 e0       	ldi	r17, 0x00	; 0
	}
	//printf("error code: %d \n",error_code);
	
	data = (msb << 8) + lsb;
	return data;
}
     88a:	c8 01       	movw	r24, r16
     88c:	df 91       	pop	r29
     88e:	cf 91       	pop	r28
     890:	1f 91       	pop	r17
     892:	0f 91       	pop	r16
     894:	ff 90       	pop	r15
     896:	08 95       	ret
	uint16_t data;
	//Send Start Condition
	i2cSendStart();	
	*error_code=i2cWaitForComplete();
	if (*error_code==0){
		*error_code=checki2cReturnCode(TW_START);
     898:	88 e0       	ldi	r24, 0x08	; 8
     89a:	0e 94 40 0f 	call	0x1e80	; 0x1e80 <checki2cReturnCode>
     89e:	88 83       	st	Y, r24
	}//
	//printf("error code: %d \n",error_code);


	//Tell Salve go in receive mode
	if (*error_code==0){	
     8a0:	88 23       	and	r24, r24
     8a2:	89 f7       	brne	.-30     	; 0x886 <bmp085ReadShort+0x1c>
		i2cSendByte(BMP085_W);	// write 0xEE
     8a4:	8e ee       	ldi	r24, 0xEE	; 238
     8a6:	0e 94 19 0f 	call	0x1e32	; 0x1e32 <i2cSendByte>
		*error_code=i2cWaitForComplete();
     8aa:	0e 94 23 0f 	call	0x1e46	; 0x1e46 <i2cWaitForComplete>
     8ae:	88 83       	st	Y, r24
	}
	//ACKS
	if (*error_code==0){	
     8b0:	88 23       	and	r24, r24
     8b2:	49 f7       	brne	.-46     	; 0x886 <bmp085ReadShort+0x1c>
		*error_code=checki2cReturnCode(TW_MT_SLA_ACK);
     8b4:	88 e1       	ldi	r24, 0x18	; 24
     8b6:	0e 94 40 0f 	call	0x1e80	; 0x1e80 <checki2cReturnCode>
     8ba:	88 83       	st	Y, r24
	}
	//printf("error code: %d \n",error_code);
	
	
	//Send read address to Salve
	if (*error_code==0){	
     8bc:	88 23       	and	r24, r24
     8be:	19 f7       	brne	.-58     	; 0x886 <bmp085ReadShort+0x1c>
		i2cSendByte(address);	// write register address
     8c0:	80 2f       	mov	r24, r16
     8c2:	0e 94 19 0f 	call	0x1e32	; 0x1e32 <i2cSendByte>
		*error_code=i2cWaitForComplete();
     8c6:	0e 94 23 0f 	call	0x1e46	; 0x1e46 <i2cWaitForComplete>
     8ca:	88 83       	st	Y, r24
	}
	//ACKS
	if (*error_code==0){	
     8cc:	88 23       	and	r24, r24
     8ce:	d9 f6       	brne	.-74     	; 0x886 <bmp085ReadShort+0x1c>
		*error_code=checki2cReturnCode(TW_MT_DATA_ACK);
     8d0:	88 e2       	ldi	r24, 0x28	; 40
     8d2:	0e 94 40 0f 	call	0x1e80	; 0x1e80 <checki2cReturnCode>
     8d6:	88 83       	st	Y, r24
	}
	//printf("error code: %d \n",error_code);

	//Send Restart to Slave
	if (*error_code==0){	
     8d8:	88 23       	and	r24, r24
     8da:	a9 f6       	brne	.-86     	; 0x886 <bmp085ReadShort+0x1c>
		i2cSendStart();
     8dc:	0e 94 f9 0e 	call	0x1df2	; 0x1df2 <i2cSendStart>
		*error_code=i2cWaitForComplete();
     8e0:	0e 94 23 0f 	call	0x1e46	; 0x1e46 <i2cWaitForComplete>
     8e4:	88 83       	st	Y, r24
	}
	if (*error_code==0){	
     8e6:	88 23       	and	r24, r24
     8e8:	71 f6       	brne	.-100    	; 0x886 <bmp085ReadShort+0x1c>
		*error_code=checki2cReturnCode(TW_REP_START);
     8ea:	80 e1       	ldi	r24, 0x10	; 16
     8ec:	0e 94 40 0f 	call	0x1e80	; 0x1e80 <checki2cReturnCode>
     8f0:	88 83       	st	Y, r24
	}
	//printf("error code: %d \n",error_code);


	//Tell Salve go in send mode
	if (*error_code==0){	
     8f2:	88 23       	and	r24, r24
     8f4:	41 f6       	brne	.-112    	; 0x886 <bmp085ReadShort+0x1c>
		i2cSendByte(BMP085_R);	// read 0xEF
     8f6:	8f ee       	ldi	r24, 0xEF	; 239
     8f8:	0e 94 19 0f 	call	0x1e32	; 0x1e32 <i2cSendByte>
		*error_code=i2cWaitForComplete();
     8fc:	0e 94 23 0f 	call	0x1e46	; 0x1e46 <i2cWaitForComplete>
     900:	88 83       	st	Y, r24
	}
	//ACKS
	if (*error_code==0){	
     902:	88 23       	and	r24, r24
     904:	09 f0       	breq	.+2      	; 0x908 <bmp085ReadShort+0x9e>
     906:	bf cf       	rjmp	.-130    	; 0x886 <bmp085ReadShort+0x1c>
		*error_code=checki2cReturnCode(TW_MR_SLA_ACK);
     908:	80 e4       	ldi	r24, 0x40	; 64
     90a:	0e 94 40 0f 	call	0x1e80	; 0x1e80 <checki2cReturnCode>
     90e:	88 83       	st	Y, r24
	}
	//printf("error code: %d \n",error_code);


	//Get MSB from Salve
	if (*error_code==0){	
     910:	88 23       	and	r24, r24
     912:	09 f0       	breq	.+2      	; 0x916 <bmp085ReadShort+0xac>
     914:	b8 cf       	rjmp	.-144    	; 0x886 <bmp085ReadShort+0x1c>
		i2cReceiveByteACK();
     916:	0e 94 1d 0f 	call	0x1e3a	; 0x1e3a <i2cReceiveByteACK>
		*error_code=i2cWaitForComplete();
     91a:	0e 94 23 0f 	call	0x1e46	; 0x1e46 <i2cWaitForComplete>
     91e:	88 83       	st	Y, r24
	}
	//printf("error code: %d \n",error_code);
	if (*error_code==0){	
     920:	88 23       	and	r24, r24
     922:	09 f0       	breq	.+2      	; 0x926 <bmp085ReadShort+0xbc>
     924:	b0 cf       	rjmp	.-160    	; 0x886 <bmp085ReadShort+0x1c>
		msb = i2cGetReceivedByte();	// Get MSB result
     926:	0e 94 3e 0f 	call	0x1e7c	; 0x1e7c <i2cGetReceivedByte>
     92a:	f8 2e       	mov	r15, r24
		*error_code=i2cWaitForComplete();
     92c:	0e 94 23 0f 	call	0x1e46	; 0x1e46 <i2cWaitForComplete>
     930:	88 83       	st	Y, r24
	}
	//ACKM
	if (*error_code==0){	
     932:	88 23       	and	r24, r24
     934:	51 f5       	brne	.+84     	; 0x98a <bmp085ReadShort+0x120>
		*error_code=checki2cReturnCode(TW_MR_DATA_ACK);
     936:	80 e5       	ldi	r24, 0x50	; 80
     938:	0e 94 40 0f 	call	0x1e80	; 0x1e80 <checki2cReturnCode>
     93c:	88 83       	st	Y, r24
	}
	//printf("error code: %d \n",error_code);

	
	//Get LSB from Slave
	if (*error_code==0){
     93e:	88 23       	and	r24, r24
     940:	21 f5       	brne	.+72     	; 0x98a <bmp085ReadShort+0x120>
		i2cReceiveByteNACK();
     942:	0e 94 20 0f 	call	0x1e40	; 0x1e40 <i2cReceiveByteNACK>
		*error_code=i2cWaitForComplete();
     946:	0e 94 23 0f 	call	0x1e46	; 0x1e46 <i2cWaitForComplete>
     94a:	88 83       	st	Y, r24
	}
	//printf("error code: %d \n",error_code);
	if (*error_code==0){	
     94c:	88 23       	and	r24, r24
     94e:	e9 f4       	brne	.+58     	; 0x98a <bmp085ReadShort+0x120>
		lsb = i2cGetReceivedByte();	// Get LSB result
     950:	0e 94 3e 0f 	call	0x1e7c	; 0x1e7c <i2cGetReceivedByte>
     954:	08 2f       	mov	r16, r24
     956:	10 e0       	ldi	r17, 0x00	; 0
		*error_code=i2cWaitForComplete();
     958:	0e 94 23 0f 	call	0x1e46	; 0x1e46 <i2cWaitForComplete>
     95c:	88 83       	st	Y, r24
	}
	//NACKM
	if (*error_code==0){	
     95e:	88 23       	and	r24, r24
     960:	49 f4       	brne	.+18     	; 0x974 <bmp085ReadShort+0x10a>
		*error_code=checki2cReturnCode(TW_MR_DATA_NACK);
     962:	88 e5       	ldi	r24, 0x58	; 88
     964:	0e 94 40 0f 	call	0x1e80	; 0x1e80 <checki2cReturnCode>
     968:	88 83       	st	Y, r24
	//printf("error code: %d \n",error_code);
	//printf("TWSR STATUS: %d \n",(TWSR & 0xF8));
	
		
	//Send Stop on the Bus
	if (*error_code==0){
     96a:	88 23       	and	r24, r24
     96c:	19 f4       	brne	.+6      	; 0x974 <bmp085ReadShort+0x10a>
		*error_code=i2cSendStop();
     96e:	0e 94 fc 0e 	call	0x1df8	; 0x1df8 <i2cSendStop>
     972:	88 83       	st	Y, r24
     974:	3f 2d       	mov	r19, r15
     976:	20 e0       	ldi	r18, 0x00	; 0
     978:	02 0f       	add	r16, r18
     97a:	13 1f       	adc	r17, r19
	}
	//printf("error code: %d \n",error_code);
	
	data = (msb << 8) + lsb;
	return data;
}
     97c:	c8 01       	movw	r24, r16
     97e:	df 91       	pop	r29
     980:	cf 91       	pop	r28
     982:	1f 91       	pop	r17
     984:	0f 91       	pop	r16
     986:	ff 90       	pop	r15
     988:	08 95       	ret
	if (*error_code==0){
		i2cReceiveByteNACK();
		*error_code=i2cWaitForComplete();
	}
	//printf("error code: %d \n",error_code);
	if (*error_code==0){	
     98a:	1f 2d       	mov	r17, r15
     98c:	00 e0       	ldi	r16, 0x00	; 0
     98e:	7d cf       	rjmp	.-262    	; 0x88a <bmp085ReadShort+0x20>

00000990 <bmp085ReadTemp>:
}
//----------------------------------------
// 
//----------------------------------------
int32_t bmp085ReadTemp(uint8_t* error_code)
{
     990:	cf 93       	push	r28
     992:	df 93       	push	r29
     994:	ec 01       	movw	r28, r24
	
	int32_t temperature = 0;
	//Send Start Condition
	i2cSendStart();	
     996:	0e 94 f9 0e 	call	0x1df2	; 0x1df2 <i2cSendStart>
	*error_code=i2cWaitForComplete();
     99a:	0e 94 23 0f 	call	0x1e46	; 0x1e46 <i2cWaitForComplete>
     99e:	88 83       	st	Y, r24
	if (*error_code==0){
     9a0:	88 23       	and	r24, r24
     9a2:	51 f1       	breq	.+84     	; 0x9f8 <bmp085ReadTemp+0x68>
	}
	//printf("error code: %d \n",error_code);

		uint16_t i = 0;		//time out variable

	while(!(input_PIN & (1<<BMP085_pin)) && (i < 5000)){
     9a4:	9a 99       	sbic	0x13, 2	; 19
     9a6:	0b c0       	rjmp	.+22     	; 0x9be <bmp085ReadTemp+0x2e>
     9a8:	88 e8       	ldi	r24, 0x88	; 136
     9aa:	93 e1       	ldi	r25, 0x13	; 19
     9ac:	02 c0       	rjmp	.+4      	; 0x9b2 <bmp085ReadTemp+0x22>
     9ae:	01 97       	sbiw	r24, 0x01	; 1
     9b0:	31 f0       	breq	.+12     	; 0x9be <bmp085ReadTemp+0x2e>
	#else
		//round up by default
		__ticks_dc = (uint32_t)(ceil(fabs(__tmp)));
	#endif

	__builtin_avr_delay_cycles(__ticks_dc);
     9b2:	22 e0       	ldi	r18, 0x02	; 2
     9b4:	2a 95       	dec	r18
     9b6:	f1 f7       	brne	.-4      	; 0x9b4 <bmp085ReadTemp+0x24>
     9b8:	00 c0       	rjmp	.+0      	; 0x9ba <bmp085ReadTemp+0x2a>
     9ba:	9a 9b       	sbis	0x13, 2	; 19
     9bc:	f8 cf       	rjmp	.-16     	; 0x9ae <bmp085ReadTemp+0x1e>
	#else
		//round up by default
		__ticks_dc = (uint32_t)(ceil(fabs(__tmp)));
	#endif

	__builtin_avr_delay_cycles(__ticks_dc);
     9be:	8f e1       	ldi	r24, 0x1F	; 31
     9c0:	9e e4       	ldi	r25, 0x4E	; 78
     9c2:	01 97       	sbiw	r24, 0x01	; 1
     9c4:	f1 f7       	brne	.-4      	; 0x9c2 <bmp085ReadTemp+0x32>
     9c6:	00 c0       	rjmp	.+0      	; 0x9c8 <bmp085ReadTemp+0x38>
     9c8:	00 00       	nop
		i++;
	};
	
	_delay_ms(10);	// min time is 4.5ms
	
	if (*error_code==0){
     9ca:	88 81       	ld	r24, Y
     9cc:	88 23       	and	r24, r24
     9ce:	41 f0       	breq	.+16     	; 0x9e0 <bmp085ReadTemp+0x50>
// 
//----------------------------------------
int32_t bmp085ReadTemp(uint8_t* error_code)
{
	
	int32_t temperature = 0;
     9d0:	20 e0       	ldi	r18, 0x00	; 0
     9d2:	30 e0       	ldi	r19, 0x00	; 0
     9d4:	a9 01       	movw	r20, r18
		temperature = bmp085ReadShort(0xF6,error_code);
	}

	
	return temperature;
}
     9d6:	b9 01       	movw	r22, r18
     9d8:	ca 01       	movw	r24, r20
     9da:	df 91       	pop	r29
     9dc:	cf 91       	pop	r28
     9de:	08 95       	ret
	};
	
	_delay_ms(10);	// min time is 4.5ms
	
	if (*error_code==0){
		temperature = bmp085ReadShort(0xF6,error_code);
     9e0:	86 ef       	ldi	r24, 0xF6	; 246
     9e2:	be 01       	movw	r22, r28
     9e4:	0e 94 35 04 	call	0x86a	; 0x86a <bmp085ReadShort>
     9e8:	9c 01       	movw	r18, r24
     9ea:	40 e0       	ldi	r20, 0x00	; 0
     9ec:	50 e0       	ldi	r21, 0x00	; 0
	}

	
	return temperature;
}
     9ee:	b9 01       	movw	r22, r18
     9f0:	ca 01       	movw	r24, r20
     9f2:	df 91       	pop	r29
     9f4:	cf 91       	pop	r28
     9f6:	08 95       	ret
	int32_t temperature = 0;
	//Send Start Condition
	i2cSendStart();	
	*error_code=i2cWaitForComplete();
	if (*error_code==0){
		*error_code=checki2cReturnCode(TW_START);
     9f8:	88 e0       	ldi	r24, 0x08	; 8
     9fa:	0e 94 40 0f 	call	0x1e80	; 0x1e80 <checki2cReturnCode>
     9fe:	88 83       	st	Y, r24
	}

	//printf("error code: %d \n",error_code);
	
	//Tell Salve go in receive mode
	if (*error_code==0){	
     a00:	88 23       	and	r24, r24
     a02:	81 f6       	brne	.-96     	; 0x9a4 <bmp085ReadTemp+0x14>
		i2cSendByte(BMP085_W);	// write 0xEE
     a04:	8e ee       	ldi	r24, 0xEE	; 238
     a06:	0e 94 19 0f 	call	0x1e32	; 0x1e32 <i2cSendByte>
		*error_code=i2cWaitForComplete();
     a0a:	0e 94 23 0f 	call	0x1e46	; 0x1e46 <i2cWaitForComplete>
     a0e:	88 83       	st	Y, r24
	}
	//ACKS
	if (*error_code==0){	
     a10:	88 23       	and	r24, r24
     a12:	41 f6       	brne	.-112    	; 0x9a4 <bmp085ReadTemp+0x14>
		*error_code=checki2cReturnCode(TW_MT_SLA_ACK);
     a14:	88 e1       	ldi	r24, 0x18	; 24
     a16:	0e 94 40 0f 	call	0x1e80	; 0x1e80 <checki2cReturnCode>
     a1a:	88 83       	st	Y, r24
	}
	//printf("error code: %d \n",error_code);
	
	//Write control register address
	if (*error_code==0){	
     a1c:	88 23       	and	r24, r24
     a1e:	11 f6       	brne	.-124    	; 0x9a4 <bmp085ReadTemp+0x14>
		i2cSendByte(0xF4);	// write 0xF4
     a20:	84 ef       	ldi	r24, 0xF4	; 244
     a22:	0e 94 19 0f 	call	0x1e32	; 0x1e32 <i2cSendByte>
		*error_code=i2cWaitForComplete();
     a26:	0e 94 23 0f 	call	0x1e46	; 0x1e46 <i2cWaitForComplete>
     a2a:	88 83       	st	Y, r24
	}
	//ACKS
	if (*error_code==0){	
     a2c:	88 23       	and	r24, r24
     a2e:	09 f0       	breq	.+2      	; 0xa32 <bmp085ReadTemp+0xa2>
     a30:	b9 cf       	rjmp	.-142    	; 0x9a4 <bmp085ReadTemp+0x14>
		*error_code=checki2cReturnCode(TW_MT_DATA_ACK);
     a32:	88 e2       	ldi	r24, 0x28	; 40
     a34:	0e 94 40 0f 	call	0x1e80	; 0x1e80 <checki2cReturnCode>
     a38:	88 83       	st	Y, r24
	}
	//printf("error code: %d \n",error_code);
	//printf("TWSR STATUS: %d \n",(TWSR & 0xF8));

	//Write control register value
	if (*error_code==0){	
     a3a:	88 23       	and	r24, r24
     a3c:	09 f0       	breq	.+2      	; 0xa40 <bmp085ReadTemp+0xb0>
     a3e:	b2 cf       	rjmp	.-156    	; 0x9a4 <bmp085ReadTemp+0x14>
		i2cSendByte(0x2E);	// write 0x2E
     a40:	8e e2       	ldi	r24, 0x2E	; 46
     a42:	0e 94 19 0f 	call	0x1e32	; 0x1e32 <i2cSendByte>
		*error_code=i2cWaitForComplete();
     a46:	0e 94 23 0f 	call	0x1e46	; 0x1e46 <i2cWaitForComplete>
     a4a:	88 83       	st	Y, r24
	}
	//ACKS
	if (*error_code==0){	
     a4c:	88 23       	and	r24, r24
     a4e:	09 f0       	breq	.+2      	; 0xa52 <bmp085ReadTemp+0xc2>
     a50:	a9 cf       	rjmp	.-174    	; 0x9a4 <bmp085ReadTemp+0x14>
		*error_code=checki2cReturnCode(TW_MT_DATA_ACK);
     a52:	88 e2       	ldi	r24, 0x28	; 40
     a54:	0e 94 40 0f 	call	0x1e80	; 0x1e80 <checki2cReturnCode>
     a58:	88 83       	st	Y, r24
	}
	//printf("error code: %d \n",error_code);

	
	//Send Stop on the Bus
	if (*error_code==0){
     a5a:	88 23       	and	r24, r24
     a5c:	09 f0       	breq	.+2      	; 0xa60 <bmp085ReadTemp+0xd0>
     a5e:	a2 cf       	rjmp	.-188    	; 0x9a4 <bmp085ReadTemp+0x14>
		*error_code=i2cSendStop();
     a60:	0e 94 fc 0e 	call	0x1df8	; 0x1df8 <i2cSendStop>
     a64:	88 83       	st	Y, r24
     a66:	9e cf       	rjmp	.-196    	; 0x9a4 <bmp085ReadTemp+0x14>

00000a68 <bmp085ReadPressure>:
}
//----------------------------------------
// 
//----------------------------------------
int32_t bmp085ReadPressure(uint8_t* error_code)
{
     a68:	cf 93       	push	r28
     a6a:	df 93       	push	r29
     a6c:	ec 01       	movw	r28, r24
	int32_t pressure = 0;
	//Send Start Condition
	i2cSendStart();	
     a6e:	0e 94 f9 0e 	call	0x1df2	; 0x1df2 <i2cSendStart>
	*error_code=i2cWaitForComplete();
     a72:	0e 94 23 0f 	call	0x1e46	; 0x1e46 <i2cWaitForComplete>
     a76:	88 83       	st	Y, r24
	if (*error_code==0){
     a78:	88 23       	and	r24, r24
     a7a:	69 f1       	breq	.+90     	; 0xad6 <bmp085ReadPressure+0x6e>
	//printf("error code: %d \n",error_code);

	uint16_t i = 0;		//time out variable && (i < 25000)


	while(!(input_PIN & (1<<BMP085_pin)) && (i < 15000)){
     a7c:	9a 99       	sbic	0x13, 2	; 19
     a7e:	0b c0       	rjmp	.+22     	; 0xa96 <bmp085ReadPressure+0x2e>
     a80:	88 e9       	ldi	r24, 0x98	; 152
     a82:	9a e3       	ldi	r25, 0x3A	; 58
     a84:	02 c0       	rjmp	.+4      	; 0xa8a <bmp085ReadPressure+0x22>
     a86:	01 97       	sbiw	r24, 0x01	; 1
     a88:	31 f0       	breq	.+12     	; 0xa96 <bmp085ReadPressure+0x2e>
	#else
		//round up by default
		__ticks_dc = (uint32_t)(ceil(fabs(__tmp)));
	#endif

	__builtin_avr_delay_cycles(__ticks_dc);
     a8a:	22 e0       	ldi	r18, 0x02	; 2
     a8c:	2a 95       	dec	r18
     a8e:	f1 f7       	brne	.-4      	; 0xa8c <bmp085ReadPressure+0x24>
     a90:	00 c0       	rjmp	.+0      	; 0xa92 <bmp085ReadPressure+0x2a>
     a92:	9a 9b       	sbis	0x13, 2	; 19
     a94:	f8 cf       	rjmp	.-16     	; 0xa86 <bmp085ReadPressure+0x1e>
	#else
		//round up by default
		__ticks_dc = (uint32_t)(ceil(fabs(__tmp)));
	#endif

	__builtin_avr_delay_cycles(__ticks_dc);
     a96:	8f ef       	ldi	r24, 0xFF	; 255
     a98:	99 ef       	ldi	r25, 0xF9	; 249
     a9a:	a0 e0       	ldi	r26, 0x00	; 0
     a9c:	81 50       	subi	r24, 0x01	; 1
     a9e:	90 40       	sbci	r25, 0x00	; 0
     aa0:	a0 40       	sbci	r26, 0x00	; 0
     aa2:	e1 f7       	brne	.-8      	; 0xa9c <bmp085ReadPressure+0x34>
     aa4:	00 c0       	rjmp	.+0      	; 0xaa6 <bmp085ReadPressure+0x3e>
     aa6:	00 00       	nop
		i++;
	};
	
	_delay_ms(40);	// min time is 15ms
	
	if (*error_code==0){
     aa8:	88 81       	ld	r24, Y
     aaa:	88 23       	and	r24, r24
     aac:	41 f0       	breq	.+16     	; 0xabe <bmp085ReadPressure+0x56>
//----------------------------------------
// 
//----------------------------------------
int32_t bmp085ReadPressure(uint8_t* error_code)
{
	int32_t pressure = 0;
     aae:	20 e0       	ldi	r18, 0x00	; 0
     ab0:	30 e0       	ldi	r19, 0x00	; 0
     ab2:	a9 01       	movw	r20, r18
		pressure = pressure >> (8-OSS);
	}
	
	return pressure;

}
     ab4:	b9 01       	movw	r22, r18
     ab6:	ca 01       	movw	r24, r20
     ab8:	df 91       	pop	r29
     aba:	cf 91       	pop	r28
     abc:	08 95       	ret
	};
	
	_delay_ms(40);	// min time is 15ms
	
	if (*error_code==0){
		pressure = bmp085ReadShort(0xF6,error_code);
     abe:	86 ef       	ldi	r24, 0xF6	; 246
     ac0:	be 01       	movw	r22, r28
     ac2:	0e 94 35 04 	call	0x86a	; 0x86a <bmp085ReadShort>
		pressure = pressure << 8;
		pressure = pressure >> (8-OSS);
     ac6:	9c 01       	movw	r18, r24
     ac8:	40 e0       	ldi	r20, 0x00	; 0
     aca:	50 e0       	ldi	r21, 0x00	; 0
	}
	
	return pressure;

}
     acc:	b9 01       	movw	r22, r18
     ace:	ca 01       	movw	r24, r20
     ad0:	df 91       	pop	r29
     ad2:	cf 91       	pop	r28
     ad4:	08 95       	ret
	int32_t pressure = 0;
	//Send Start Condition
	i2cSendStart();	
	*error_code=i2cWaitForComplete();
	if (*error_code==0){
		*error_code=checki2cReturnCode(TW_START);
     ad6:	88 e0       	ldi	r24, 0x08	; 8
     ad8:	0e 94 40 0f 	call	0x1e80	; 0x1e80 <checki2cReturnCode>
     adc:	88 83       	st	Y, r24
	}

	//printf("error code: %d \n",error_code);
	
	//Tell Salve go in receive mode
	if (*error_code==0){	
     ade:	88 23       	and	r24, r24
     ae0:	69 f6       	brne	.-102    	; 0xa7c <bmp085ReadPressure+0x14>
		i2cSendByte(BMP085_W);	// write 0xEE
     ae2:	8e ee       	ldi	r24, 0xEE	; 238
     ae4:	0e 94 19 0f 	call	0x1e32	; 0x1e32 <i2cSendByte>
		*error_code=i2cWaitForComplete();
     ae8:	0e 94 23 0f 	call	0x1e46	; 0x1e46 <i2cWaitForComplete>
     aec:	88 83       	st	Y, r24
	}
	//ACKS
	if (*error_code==0){	
     aee:	88 23       	and	r24, r24
     af0:	29 f6       	brne	.-118    	; 0xa7c <bmp085ReadPressure+0x14>
		*error_code=checki2cReturnCode(TW_MT_SLA_ACK);
     af2:	88 e1       	ldi	r24, 0x18	; 24
     af4:	0e 94 40 0f 	call	0x1e80	; 0x1e80 <checki2cReturnCode>
     af8:	88 83       	st	Y, r24
	}
	//printf("error code: %d \n",error_code);
	
	//Write control register address
	if (*error_code==0){	
     afa:	88 23       	and	r24, r24
     afc:	09 f0       	breq	.+2      	; 0xb00 <bmp085ReadPressure+0x98>
     afe:	be cf       	rjmp	.-132    	; 0xa7c <bmp085ReadPressure+0x14>
		i2cSendByte(0xF4);	// write 0xF4
     b00:	84 ef       	ldi	r24, 0xF4	; 244
     b02:	0e 94 19 0f 	call	0x1e32	; 0x1e32 <i2cSendByte>
		*error_code=i2cWaitForComplete();
     b06:	0e 94 23 0f 	call	0x1e46	; 0x1e46 <i2cWaitForComplete>
     b0a:	88 83       	st	Y, r24
	}
	//ACKS
	if (*error_code==0){	
     b0c:	88 23       	and	r24, r24
     b0e:	09 f0       	breq	.+2      	; 0xb12 <bmp085ReadPressure+0xaa>
     b10:	b5 cf       	rjmp	.-150    	; 0xa7c <bmp085ReadPressure+0x14>
		*error_code=checki2cReturnCode(TW_MT_DATA_ACK);
     b12:	88 e2       	ldi	r24, 0x28	; 40
     b14:	0e 94 40 0f 	call	0x1e80	; 0x1e80 <checki2cReturnCode>
     b18:	88 83       	st	Y, r24
	}
	//printf("error code: %d \n",error_code);
	//printf("TWSR STATUS: %d \n",(TWSR & 0xF8));

	//Write control register value
	if (*error_code==0){	
     b1a:	88 23       	and	r24, r24
     b1c:	09 f0       	breq	.+2      	; 0xb20 <bmp085ReadPressure+0xb8>
     b1e:	ae cf       	rjmp	.-164    	; 0xa7c <bmp085ReadPressure+0x14>
		i2cSendByte(0x34+(OSS<<6));	// write 0x34+(OSS<<6)
     b20:	84 e3       	ldi	r24, 0x34	; 52
     b22:	0e 94 19 0f 	call	0x1e32	; 0x1e32 <i2cSendByte>
		*error_code=i2cWaitForComplete();
     b26:	0e 94 23 0f 	call	0x1e46	; 0x1e46 <i2cWaitForComplete>
     b2a:	88 83       	st	Y, r24
	}
	//ACKS
	if (*error_code==0){	
     b2c:	88 23       	and	r24, r24
     b2e:	09 f0       	breq	.+2      	; 0xb32 <bmp085ReadPressure+0xca>
     b30:	a5 cf       	rjmp	.-182    	; 0xa7c <bmp085ReadPressure+0x14>
		*error_code=checki2cReturnCode(TW_MT_DATA_ACK);
     b32:	88 e2       	ldi	r24, 0x28	; 40
     b34:	0e 94 40 0f 	call	0x1e80	; 0x1e80 <checki2cReturnCode>
     b38:	88 83       	st	Y, r24
	}
	//printf("error code: %d \n",error_code);

	
	//Send Stop on the Bus
	if (*error_code==0){
     b3a:	88 23       	and	r24, r24
     b3c:	09 f0       	breq	.+2      	; 0xb40 <bmp085ReadPressure+0xd8>
     b3e:	9e cf       	rjmp	.-196    	; 0xa7c <bmp085ReadPressure+0x14>
		*error_code=i2cSendStop();
     b40:	0e 94 fc 0e 	call	0x1df8	; 0x1df8 <i2cSendStop>
     b44:	88 83       	st	Y, r24
     b46:	9a cf       	rjmp	.-204    	; 0xa7c <bmp085ReadPressure+0x14>

00000b48 <bmp085Convert>:
}
//----------------------------------------
// 
//----------------------------------------
void bmp085Convert(int16_t BMP085_calibration_int16_t[],int16_t BMP085_calibration_uint16_t[],int32_t* temperature, int32_t* pressure, uint8_t* error_code)
{
     b48:	2f 92       	push	r2
     b4a:	3f 92       	push	r3
     b4c:	4f 92       	push	r4
     b4e:	5f 92       	push	r5
     b50:	6f 92       	push	r6
     b52:	7f 92       	push	r7
     b54:	8f 92       	push	r8
     b56:	9f 92       	push	r9
     b58:	af 92       	push	r10
     b5a:	bf 92       	push	r11
     b5c:	cf 92       	push	r12
     b5e:	df 92       	push	r13
     b60:	ef 92       	push	r14
     b62:	ff 92       	push	r15
     b64:	0f 93       	push	r16
     b66:	1f 93       	push	r17
     b68:	df 93       	push	r29
     b6a:	cf 93       	push	r28
     b6c:	cd b7       	in	r28, 0x3d	; 61
     b6e:	de b7       	in	r29, 0x3e	; 62
     b70:	62 97       	sbiw	r28, 0x12	; 18
     b72:	0f b6       	in	r0, 0x3f	; 63
     b74:	f8 94       	cli
     b76:	de bf       	out	0x3e, r29	; 62
     b78:	0f be       	out	0x3f, r0	; 63
     b7a:	cd bf       	out	0x3d, r28	; 61
     b7c:	fc 01       	movw	r30, r24
     b7e:	2a 01       	movw	r4, r20
     b80:	3a 8b       	std	Y+18, r19	; 0x12
     b82:	29 8b       	std	Y+17, r18	; 0x11
     b84:	68 01       	movw	r12, r16
	int32_t ut=0;
	int32_t up=0;
	int32_t x1, x2, b5, b6, x3, b3, p;
	uint32_t b4, b7;
	
	int16_t ac1=BMP085_calibration_int16_t[0];
     b86:	80 81       	ld	r24, Z
     b88:	91 81       	ldd	r25, Z+1	; 0x01
     b8a:	9e 83       	std	Y+6, r25	; 0x06
     b8c:	8d 83       	std	Y+5, r24	; 0x05
	int16_t ac2=BMP085_calibration_int16_t[1]; 
     b8e:	a2 81       	ldd	r26, Z+2	; 0x02
     b90:	b3 81       	ldd	r27, Z+3	; 0x03
     b92:	b8 87       	std	Y+8, r27	; 0x08
     b94:	af 83       	std	Y+7, r26	; 0x07
	int16_t ac3=BMP085_calibration_int16_t[2]; 
     b96:	84 81       	ldd	r24, Z+4	; 0x04
     b98:	95 81       	ldd	r25, Z+5	; 0x05
     b9a:	9a 87       	std	Y+10, r25	; 0x0a
     b9c:	89 87       	std	Y+9, r24	; 0x09
	uint16_t ac4=BMP085_calibration_uint16_t[0];
     b9e:	db 01       	movw	r26, r22
     ba0:	0d 90       	ld	r0, X+
     ba2:	bc 91       	ld	r27, X
     ba4:	a0 2d       	mov	r26, r0
     ba6:	bc 87       	std	Y+12, r27	; 0x0c
     ba8:	ab 87       	std	Y+11, r26	; 0x0b
	uint16_t ac5=BMP085_calibration_uint16_t[1];
     baa:	db 01       	movw	r26, r22
     bac:	12 96       	adiw	r26, 0x02	; 2
     bae:	6d 90       	ld	r6, X+
     bb0:	7c 90       	ld	r7, X
     bb2:	13 97       	sbiw	r26, 0x03	; 3
	uint16_t ac6=BMP085_calibration_uint16_t[2];
     bb4:	14 96       	adiw	r26, 0x04	; 4
     bb6:	ad 90       	ld	r10, X+
     bb8:	bc 90       	ld	r11, X
     bba:	15 97       	sbiw	r26, 0x05	; 5
	int16_t b1=BMP085_calibration_int16_t[3]; 
     bbc:	86 81       	ldd	r24, Z+6	; 0x06
     bbe:	97 81       	ldd	r25, Z+7	; 0x07
     bc0:	9e 87       	std	Y+14, r25	; 0x0e
     bc2:	8d 87       	std	Y+13, r24	; 0x0d
	int16_t b2=BMP085_calibration_int16_t[4];
     bc4:	a0 85       	ldd	r26, Z+8	; 0x08
     bc6:	b1 85       	ldd	r27, Z+9	; 0x09
     bc8:	b8 8b       	std	Y+16, r27	; 0x10
     bca:	af 87       	std	Y+15, r26	; 0x0f
	int16_t mb=BMP085_calibration_int16_t[5];
	int16_t mc=BMP085_calibration_int16_t[6];
     bcc:	24 84       	ldd	r2, Z+12	; 0x0c
     bce:	35 84       	ldd	r3, Z+13	; 0x0d
	int16_t md=BMP085_calibration_int16_t[7];
     bd0:	86 84       	ldd	r8, Z+14	; 0x0e
     bd2:	97 84       	ldd	r9, Z+15	; 0x0f

	
	if (*error_code==0){
     bd4:	f8 01       	movw	r30, r16
     bd6:	80 81       	ld	r24, Z
     bd8:	88 23       	and	r24, r24
     bda:	09 f4       	brne	.+2      	; 0xbde <bmp085Convert+0x96>
     bdc:	7d c1       	rjmp	.+762    	; 0xed8 <bmp085Convert+0x390>
// 
//----------------------------------------
void bmp085Convert(int16_t BMP085_calibration_int16_t[],int16_t BMP085_calibration_uint16_t[],int32_t* temperature, int32_t* pressure, uint8_t* error_code)
{

	int32_t ut=0;
     bde:	ee 24       	eor	r14, r14
     be0:	ff 24       	eor	r15, r15
     be2:	87 01       	movw	r16, r14
	int32_t up=0;
     be4:	19 82       	std	Y+1, r1	; 0x01
     be6:	1a 82       	std	Y+2, r1	; 0x02
     be8:	1b 82       	std	Y+3, r1	; 0x03
     bea:	1c 82       	std	Y+4, r1	; 0x04
	if (*error_code==0){
		up = bmp085ReadPressure(error_code);
	}
	*/
	
	x1 = ((int32_t)ut - (int32_t)ac6) * (int32_t)ac5 >> 15;
     bec:	cc 24       	eor	r12, r12
     bee:	dd 24       	eor	r13, r13
     bf0:	c8 01       	movw	r24, r16
     bf2:	b7 01       	movw	r22, r14
     bf4:	6a 19       	sub	r22, r10
     bf6:	7b 09       	sbc	r23, r11
     bf8:	8c 09       	sbc	r24, r12
     bfa:	9d 09       	sbc	r25, r13
     bfc:	93 01       	movw	r18, r6
     bfe:	40 e0       	ldi	r20, 0x00	; 0
     c00:	50 e0       	ldi	r21, 0x00	; 0
     c02:	0e 94 0c 16 	call	0x2c18	; 0x2c18 <__mulsi3>
     c06:	7b 01       	movw	r14, r22
     c08:	8c 01       	movw	r16, r24
     c0a:	ff e0       	ldi	r31, 0x0F	; 15
     c0c:	15 95       	asr	r17
     c0e:	07 95       	ror	r16
     c10:	f7 94       	ror	r15
     c12:	e7 94       	ror	r14
     c14:	fa 95       	dec	r31
     c16:	d1 f7       	brne	.-12     	; 0xc0c <bmp085Convert+0xc4>
	x2 = ((int32_t)mc << 11) / (x1 + md);
     c18:	b1 01       	movw	r22, r2
     c1a:	88 27       	eor	r24, r24
     c1c:	77 fd       	sbrc	r23, 7
     c1e:	80 95       	com	r24
     c20:	98 2f       	mov	r25, r24
     c22:	eb e0       	ldi	r30, 0x0B	; 11
     c24:	66 0f       	add	r22, r22
     c26:	77 1f       	adc	r23, r23
     c28:	88 1f       	adc	r24, r24
     c2a:	99 1f       	adc	r25, r25
     c2c:	ea 95       	dec	r30
     c2e:	d1 f7       	brne	.-12     	; 0xc24 <bmp085Convert+0xdc>
     c30:	94 01       	movw	r18, r8
     c32:	44 27       	eor	r20, r20
     c34:	37 fd       	sbrc	r19, 7
     c36:	40 95       	com	r20
     c38:	54 2f       	mov	r21, r20
     c3a:	2e 0d       	add	r18, r14
     c3c:	3f 1d       	adc	r19, r15
     c3e:	40 1f       	adc	r20, r16
     c40:	51 1f       	adc	r21, r17
     c42:	0e 94 61 16 	call	0x2cc2	; 0x2cc2 <__divmodsi4>
	b5 = x1 + x2;
     c46:	2e 0d       	add	r18, r14
     c48:	3f 1d       	adc	r19, r15
     c4a:	40 1f       	adc	r20, r16
     c4c:	51 1f       	adc	r21, r17
	*temperature = (b5 + 8) >> 4;
     c4e:	da 01       	movw	r26, r20
     c50:	c9 01       	movw	r24, r18
     c52:	08 96       	adiw	r24, 0x08	; 8
     c54:	a1 1d       	adc	r26, r1
     c56:	b1 1d       	adc	r27, r1
     c58:	74 e0       	ldi	r23, 0x04	; 4
     c5a:	b5 95       	asr	r27
     c5c:	a7 95       	ror	r26
     c5e:	97 95       	ror	r25
     c60:	87 95       	ror	r24
     c62:	7a 95       	dec	r23
     c64:	d1 f7       	brne	.-12     	; 0xc5a <bmp085Convert+0x112>
     c66:	f2 01       	movw	r30, r4
     c68:	80 83       	st	Z, r24
     c6a:	91 83       	std	Z+1, r25	; 0x01
     c6c:	a2 83       	std	Z+2, r26	; 0x02
     c6e:	b3 83       	std	Z+3, r27	; 0x03
	
	b6 = b5 - 4000;
     c70:	60 e6       	ldi	r22, 0x60	; 96
     c72:	66 2e       	mov	r6, r22
     c74:	60 ef       	ldi	r22, 0xF0	; 240
     c76:	76 2e       	mov	r7, r22
     c78:	6f ef       	ldi	r22, 0xFF	; 255
     c7a:	86 2e       	mov	r8, r22
     c7c:	6f ef       	ldi	r22, 0xFF	; 255
     c7e:	96 2e       	mov	r9, r22
     c80:	62 0e       	add	r6, r18
     c82:	73 1e       	adc	r7, r19
     c84:	84 1e       	adc	r8, r20
     c86:	95 1e       	adc	r9, r21
	x1 = (b2 * ((b6 * b6) >> 12)) >> 11;
     c88:	c4 01       	movw	r24, r8
     c8a:	b3 01       	movw	r22, r6
     c8c:	a4 01       	movw	r20, r8
     c8e:	93 01       	movw	r18, r6
     c90:	0e 94 0c 16 	call	0x2c18	; 0x2c18 <__mulsi3>
     c94:	1b 01       	movw	r2, r22
     c96:	2c 01       	movw	r4, r24
     c98:	5c e0       	ldi	r21, 0x0C	; 12
     c9a:	55 94       	asr	r5
     c9c:	47 94       	ror	r4
     c9e:	37 94       	ror	r3
     ca0:	27 94       	ror	r2
     ca2:	5a 95       	dec	r21
     ca4:	d1 f7       	brne	.-12     	; 0xc9a <bmp085Convert+0x152>
	x2 = (ac2 * b6) >> 11;
	x3 = x1 + x2;
	b3 = (((((int32_t) ac1) * 4 + x3)<<OSS) + 2)>> 2;
	x1 = (ac3 * b6) >> 13;
     ca6:	89 85       	ldd	r24, Y+9	; 0x09
     ca8:	9a 85       	ldd	r25, Y+10	; 0x0a
     caa:	9c 01       	movw	r18, r24
     cac:	44 27       	eor	r20, r20
     cae:	37 fd       	sbrc	r19, 7
     cb0:	40 95       	com	r20
     cb2:	54 2f       	mov	r21, r20
     cb4:	c4 01       	movw	r24, r8
     cb6:	b3 01       	movw	r22, r6
     cb8:	0e 94 0c 16 	call	0x2c18	; 0x2c18 <__mulsi3>
     cbc:	7b 01       	movw	r14, r22
     cbe:	8c 01       	movw	r16, r24
     cc0:	4d e0       	ldi	r20, 0x0D	; 13
     cc2:	15 95       	asr	r17
     cc4:	07 95       	ror	r16
     cc6:	f7 94       	ror	r15
     cc8:	e7 94       	ror	r14
     cca:	4a 95       	dec	r20
     ccc:	d1 f7       	brne	.-12     	; 0xcc2 <bmp085Convert+0x17a>
	x2 = (b1 * ((b6 * b6) >> 12)) >> 16;
	x3 = ((x1 + x2) + 2) >> 2;
     cce:	82 e0       	ldi	r24, 0x02	; 2
     cd0:	90 e0       	ldi	r25, 0x00	; 0
     cd2:	a0 e0       	ldi	r26, 0x00	; 0
     cd4:	b0 e0       	ldi	r27, 0x00	; 0
     cd6:	e8 0e       	add	r14, r24
     cd8:	f9 1e       	adc	r15, r25
     cda:	0a 1f       	adc	r16, r26
     cdc:	1b 1f       	adc	r17, r27
	x1 = (b2 * ((b6 * b6) >> 12)) >> 11;
	x2 = (ac2 * b6) >> 11;
	x3 = x1 + x2;
	b3 = (((((int32_t) ac1) * 4 + x3)<<OSS) + 2)>> 2;
	x1 = (ac3 * b6) >> 13;
	x2 = (b1 * ((b6 * b6) >> 12)) >> 16;
     cde:	ad 85       	ldd	r26, Y+13	; 0x0d
     ce0:	be 85       	ldd	r27, Y+14	; 0x0e
     ce2:	9d 01       	movw	r18, r26
     ce4:	44 27       	eor	r20, r20
     ce6:	37 fd       	sbrc	r19, 7
     ce8:	40 95       	com	r20
     cea:	54 2f       	mov	r21, r20
     cec:	c2 01       	movw	r24, r4
     cee:	b1 01       	movw	r22, r2
     cf0:	0e 94 0c 16 	call	0x2c18	; 0x2c18 <__mulsi3>
     cf4:	bc 01       	movw	r22, r24
     cf6:	99 27       	eor	r25, r25
     cf8:	77 fd       	sbrc	r23, 7
     cfa:	90 95       	com	r25
     cfc:	89 2f       	mov	r24, r25
	x3 = ((x1 + x2) + 2) >> 2;
     cfe:	e6 0e       	add	r14, r22
     d00:	f7 1e       	adc	r15, r23
     d02:	08 1f       	adc	r16, r24
     d04:	19 1f       	adc	r17, r25
     d06:	15 95       	asr	r17
     d08:	07 95       	ror	r16
     d0a:	f7 94       	ror	r15
     d0c:	e7 94       	ror	r14
     d0e:	15 95       	asr	r17
     d10:	07 95       	ror	r16
     d12:	f7 94       	ror	r15
     d14:	e7 94       	ror	r14
	b4 = (ac4 * (uint32_t) (x3 + 32768)) >> 15;
     d16:	80 e0       	ldi	r24, 0x00	; 0
     d18:	90 e8       	ldi	r25, 0x80	; 128
     d1a:	a0 e0       	ldi	r26, 0x00	; 0
     d1c:	b0 e0       	ldi	r27, 0x00	; 0
     d1e:	e8 0e       	add	r14, r24
     d20:	f9 1e       	adc	r15, r25
     d22:	0a 1f       	adc	r16, r26
     d24:	1b 1f       	adc	r17, r27
     d26:	ab 85       	ldd	r26, Y+11	; 0x0b
     d28:	bc 85       	ldd	r27, Y+12	; 0x0c
     d2a:	9d 01       	movw	r18, r26
     d2c:	40 e0       	ldi	r20, 0x00	; 0
     d2e:	50 e0       	ldi	r21, 0x00	; 0
     d30:	c8 01       	movw	r24, r16
     d32:	b7 01       	movw	r22, r14
     d34:	0e 94 0c 16 	call	0x2c18	; 0x2c18 <__mulsi3>
     d38:	5b 01       	movw	r10, r22
     d3a:	6c 01       	movw	r12, r24
     d3c:	9f e0       	ldi	r25, 0x0F	; 15
     d3e:	d6 94       	lsr	r13
     d40:	c7 94       	ror	r12
     d42:	b7 94       	ror	r11
     d44:	a7 94       	ror	r10
     d46:	9a 95       	dec	r25
     d48:	d1 f7       	brne	.-12     	; 0xd3e <bmp085Convert+0x1f6>
	
	b6 = b5 - 4000;
	x1 = (b2 * ((b6 * b6) >> 12)) >> 11;
	x2 = (ac2 * b6) >> 11;
	x3 = x1 + x2;
	b3 = (((((int32_t) ac1) * 4 + x3)<<OSS) + 2)>> 2;
     d4a:	ed 81       	ldd	r30, Y+5	; 0x05
     d4c:	fe 81       	ldd	r31, Y+6	; 0x06
     d4e:	7f 01       	movw	r14, r30
     d50:	00 27       	eor	r16, r16
     d52:	f7 fc       	sbrc	r15, 7
     d54:	00 95       	com	r16
     d56:	10 2f       	mov	r17, r16
     d58:	ee 0c       	add	r14, r14
     d5a:	ff 1c       	adc	r15, r15
     d5c:	00 1f       	adc	r16, r16
     d5e:	11 1f       	adc	r17, r17
     d60:	ee 0c       	add	r14, r14
     d62:	ff 1c       	adc	r15, r15
     d64:	00 1f       	adc	r16, r16
     d66:	11 1f       	adc	r17, r17
	*temperature = (b5 + 8) >> 4;
	
	b6 = b5 - 4000;
	x1 = (b2 * ((b6 * b6) >> 12)) >> 11;
	x2 = (ac2 * b6) >> 11;
	x3 = x1 + x2;
     d68:	82 e0       	ldi	r24, 0x02	; 2
     d6a:	90 e0       	ldi	r25, 0x00	; 0
     d6c:	a0 e0       	ldi	r26, 0x00	; 0
     d6e:	b0 e0       	ldi	r27, 0x00	; 0
     d70:	e8 0e       	add	r14, r24
     d72:	f9 1e       	adc	r15, r25
     d74:	0a 1f       	adc	r16, r26
     d76:	1b 1f       	adc	r17, r27
	b5 = x1 + x2;
	*temperature = (b5 + 8) >> 4;
	
	b6 = b5 - 4000;
	x1 = (b2 * ((b6 * b6) >> 12)) >> 11;
	x2 = (ac2 * b6) >> 11;
     d78:	af 81       	ldd	r26, Y+7	; 0x07
     d7a:	b8 85       	ldd	r27, Y+8	; 0x08
     d7c:	9d 01       	movw	r18, r26
     d7e:	44 27       	eor	r20, r20
     d80:	37 fd       	sbrc	r19, 7
     d82:	40 95       	com	r20
     d84:	54 2f       	mov	r21, r20
     d86:	c4 01       	movw	r24, r8
     d88:	b3 01       	movw	r22, r6
     d8a:	0e 94 0c 16 	call	0x2c18	; 0x2c18 <__mulsi3>
     d8e:	bb e0       	ldi	r27, 0x0B	; 11
     d90:	95 95       	asr	r25
     d92:	87 95       	ror	r24
     d94:	77 95       	ror	r23
     d96:	67 95       	ror	r22
     d98:	ba 95       	dec	r27
     d9a:	d1 f7       	brne	.-12     	; 0xd90 <bmp085Convert+0x248>
	x3 = x1 + x2;
	b3 = (((((int32_t) ac1) * 4 + x3)<<OSS) + 2)>> 2;
     d9c:	e6 0e       	add	r14, r22
     d9e:	f7 1e       	adc	r15, r23
     da0:	08 1f       	adc	r16, r24
     da2:	19 1f       	adc	r17, r25
	x2 = ((int32_t)mc << 11) / (x1 + md);
	b5 = x1 + x2;
	*temperature = (b5 + 8) >> 4;
	
	b6 = b5 - 4000;
	x1 = (b2 * ((b6 * b6) >> 12)) >> 11;
     da4:	ef 85       	ldd	r30, Y+15	; 0x0f
     da6:	f8 89       	ldd	r31, Y+16	; 0x10
     da8:	9f 01       	movw	r18, r30
     daa:	44 27       	eor	r20, r20
     dac:	37 fd       	sbrc	r19, 7
     dae:	40 95       	com	r20
     db0:	54 2f       	mov	r21, r20
     db2:	c2 01       	movw	r24, r4
     db4:	b1 01       	movw	r22, r2
     db6:	0e 94 0c 16 	call	0x2c18	; 0x2c18 <__mulsi3>
     dba:	ab e0       	ldi	r26, 0x0B	; 11
     dbc:	95 95       	asr	r25
     dbe:	87 95       	ror	r24
     dc0:	77 95       	ror	r23
     dc2:	67 95       	ror	r22
     dc4:	aa 95       	dec	r26
     dc6:	d1 f7       	brne	.-12     	; 0xdbc <bmp085Convert+0x274>
	x2 = (ac2 * b6) >> 11;
	x3 = x1 + x2;
	b3 = (((((int32_t) ac1) * 4 + x3)<<OSS) + 2)>> 2;
     dc8:	e6 0e       	add	r14, r22
     dca:	f7 1e       	adc	r15, r23
     dcc:	08 1f       	adc	r16, r24
     dce:	19 1f       	adc	r17, r25
     dd0:	15 95       	asr	r17
     dd2:	07 95       	ror	r16
     dd4:	f7 94       	ror	r15
     dd6:	e7 94       	ror	r14
     dd8:	15 95       	asr	r17
     dda:	07 95       	ror	r16
     ddc:	f7 94       	ror	r15
     dde:	e7 94       	ror	r14
	x1 = (ac3 * b6) >> 13;
	x2 = (b1 * ((b6 * b6) >> 12)) >> 16;
	x3 = ((x1 + x2) + 2) >> 2;
	b4 = (ac4 * (uint32_t) (x3 + 32768)) >> 15;
	b7 = (((uint32_t) (up - b3)) * (50000 >> OSS));
     de0:	69 81       	ldd	r22, Y+1	; 0x01
     de2:	7a 81       	ldd	r23, Y+2	; 0x02
     de4:	8b 81       	ldd	r24, Y+3	; 0x03
     de6:	9c 81       	ldd	r25, Y+4	; 0x04
     de8:	6e 19       	sub	r22, r14
     dea:	7f 09       	sbc	r23, r15
     dec:	80 0b       	sbc	r24, r16
     dee:	91 0b       	sbc	r25, r17
     df0:	20 e5       	ldi	r18, 0x50	; 80
     df2:	33 ec       	ldi	r19, 0xC3	; 195
     df4:	40 e0       	ldi	r20, 0x00	; 0
     df6:	50 e0       	ldi	r21, 0x00	; 0
     df8:	0e 94 0c 16 	call	0x2c18	; 0x2c18 <__mulsi3>

	
	if (b7 < 0x80000000)
     dfc:	97 fd       	sbrc	r25, 7
     dfe:	61 c0       	rjmp	.+194    	; 0xec2 <bmp085Convert+0x37a>
	{
		p = (b7 << 1) / b4;
     e00:	66 0f       	add	r22, r22
     e02:	77 1f       	adc	r23, r23
     e04:	88 1f       	adc	r24, r24
     e06:	99 1f       	adc	r25, r25
     e08:	a6 01       	movw	r20, r12
     e0a:	95 01       	movw	r18, r10
     e0c:	0e 94 3f 16 	call	0x2c7e	; 0x2c7e <__udivmodsi4>
     e10:	79 01       	movw	r14, r18
     e12:	8a 01       	movw	r16, r20
	else
	{ 
		p = (b7 / b4) << 1;
	}

	x1 = (p >> 8) * (p >> 8);
     e14:	55 27       	eor	r21, r21
     e16:	17 fd       	sbrc	r17, 7
     e18:	5a 95       	dec	r21
     e1a:	41 2f       	mov	r20, r17
     e1c:	30 2f       	mov	r19, r16
     e1e:	2f 2d       	mov	r18, r15
     e20:	ca 01       	movw	r24, r20
     e22:	b9 01       	movw	r22, r18
     e24:	0e 94 0c 16 	call	0x2c18	; 0x2c18 <__mulsi3>
	x1 = (x1 * 3038) >> 16;
     e28:	2e ed       	ldi	r18, 0xDE	; 222
     e2a:	3b e0       	ldi	r19, 0x0B	; 11
     e2c:	40 e0       	ldi	r20, 0x00	; 0
     e2e:	50 e0       	ldi	r21, 0x00	; 0
     e30:	0e 94 0c 16 	call	0x2c18	; 0x2c18 <__mulsi3>
     e34:	5b 01       	movw	r10, r22
     e36:	6c 01       	movw	r12, r24
	x2 = (-7357 * p) >> 16;
     e38:	c8 01       	movw	r24, r16
     e3a:	b7 01       	movw	r22, r14
     e3c:	23 e4       	ldi	r18, 0x43	; 67
     e3e:	33 ee       	ldi	r19, 0xE3	; 227
     e40:	4f ef       	ldi	r20, 0xFF	; 255
     e42:	5f ef       	ldi	r21, 0xFF	; 255
     e44:	0e 94 0c 16 	call	0x2c18	; 0x2c18 <__mulsi3>
     e48:	bc 01       	movw	r22, r24
     e4a:	99 27       	eor	r25, r25
     e4c:	77 fd       	sbrc	r23, 7
     e4e:	90 95       	com	r25
     e50:	89 2f       	mov	r24, r25
	*pressure = p + ((x1 + x2 + 3791) >> 4);
     e52:	61 53       	subi	r22, 0x31	; 49
     e54:	71 4f       	sbci	r23, 0xF1	; 241
     e56:	8f 4f       	sbci	r24, 0xFF	; 255
     e58:	9f 4f       	sbci	r25, 0xFF	; 255
	{ 
		p = (b7 / b4) << 1;
	}

	x1 = (p >> 8) * (p >> 8);
	x1 = (x1 * 3038) >> 16;
     e5a:	56 01       	movw	r10, r12
     e5c:	dd 24       	eor	r13, r13
     e5e:	b7 fc       	sbrc	r11, 7
     e60:	d0 94       	com	r13
     e62:	cd 2c       	mov	r12, r13
	x2 = (-7357 * p) >> 16;
	*pressure = p + ((x1 + x2 + 3791) >> 4);
     e64:	6a 0d       	add	r22, r10
     e66:	7b 1d       	adc	r23, r11
     e68:	8c 1d       	adc	r24, r12
     e6a:	9d 1d       	adc	r25, r13
     e6c:	24 e0       	ldi	r18, 0x04	; 4
     e6e:	95 95       	asr	r25
     e70:	87 95       	ror	r24
     e72:	77 95       	ror	r23
     e74:	67 95       	ror	r22
     e76:	2a 95       	dec	r18
     e78:	d1 f7       	brne	.-12     	; 0xe6e <bmp085Convert+0x326>
     e7a:	6e 0d       	add	r22, r14
     e7c:	7f 1d       	adc	r23, r15
     e7e:	80 1f       	adc	r24, r16
     e80:	91 1f       	adc	r25, r17
     e82:	a9 89       	ldd	r26, Y+17	; 0x11
     e84:	ba 89       	ldd	r27, Y+18	; 0x12
     e86:	6d 93       	st	X+, r22
     e88:	7d 93       	st	X+, r23
     e8a:	8d 93       	st	X+, r24
     e8c:	9c 93       	st	X, r25
     e8e:	13 97       	sbiw	r26, 0x03	; 3
}
     e90:	62 96       	adiw	r28, 0x12	; 18
     e92:	0f b6       	in	r0, 0x3f	; 63
     e94:	f8 94       	cli
     e96:	de bf       	out	0x3e, r29	; 62
     e98:	0f be       	out	0x3f, r0	; 63
     e9a:	cd bf       	out	0x3d, r28	; 61
     e9c:	cf 91       	pop	r28
     e9e:	df 91       	pop	r29
     ea0:	1f 91       	pop	r17
     ea2:	0f 91       	pop	r16
     ea4:	ff 90       	pop	r15
     ea6:	ef 90       	pop	r14
     ea8:	df 90       	pop	r13
     eaa:	cf 90       	pop	r12
     eac:	bf 90       	pop	r11
     eae:	af 90       	pop	r10
     eb0:	9f 90       	pop	r9
     eb2:	8f 90       	pop	r8
     eb4:	7f 90       	pop	r7
     eb6:	6f 90       	pop	r6
     eb8:	5f 90       	pop	r5
     eba:	4f 90       	pop	r4
     ebc:	3f 90       	pop	r3
     ebe:	2f 90       	pop	r2
     ec0:	08 95       	ret
	{
		p = (b7 << 1) / b4;
	}
	else
	{ 
		p = (b7 / b4) << 1;
     ec2:	a6 01       	movw	r20, r12
     ec4:	95 01       	movw	r18, r10
     ec6:	0e 94 3f 16 	call	0x2c7e	; 0x2c7e <__udivmodsi4>
     eca:	79 01       	movw	r14, r18
     ecc:	8a 01       	movw	r16, r20
     ece:	ee 0c       	add	r14, r14
     ed0:	ff 1c       	adc	r15, r15
     ed2:	00 1f       	adc	r16, r16
     ed4:	11 1f       	adc	r17, r17
     ed6:	9e cf       	rjmp	.-196    	; 0xe14 <bmp085Convert+0x2cc>
	int16_t mc=BMP085_calibration_int16_t[6];
	int16_t md=BMP085_calibration_int16_t[7];

	
	if (*error_code==0){
		ut = bmp085ReadTemp(error_code);
     ed8:	c8 01       	movw	r24, r16
     eda:	0e 94 c8 04 	call	0x990	; 0x990 <bmp085ReadTemp>
     ede:	7b 01       	movw	r14, r22
     ee0:	8c 01       	movw	r16, r24
	}
	if (*error_code==0){
     ee2:	d6 01       	movw	r26, r12
     ee4:	8c 91       	ld	r24, X
     ee6:	88 23       	and	r24, r24
     ee8:	41 f4       	brne	.+16     	; 0xefa <bmp085Convert+0x3b2>
		up = bmp085ReadPressure(error_code);
     eea:	c6 01       	movw	r24, r12
     eec:	0e 94 34 05 	call	0xa68	; 0xa68 <bmp085ReadPressure>
     ef0:	69 83       	std	Y+1, r22	; 0x01
     ef2:	7a 83       	std	Y+2, r23	; 0x02
     ef4:	8b 83       	std	Y+3, r24	; 0x03
     ef6:	9c 83       	std	Y+4, r25	; 0x04
     ef8:	79 ce       	rjmp	.-782    	; 0xbec <bmp085Convert+0xa4>
//----------------------------------------
void bmp085Convert(int16_t BMP085_calibration_int16_t[],int16_t BMP085_calibration_uint16_t[],int32_t* temperature, int32_t* pressure, uint8_t* error_code)
{

	int32_t ut=0;
	int32_t up=0;
     efa:	19 82       	std	Y+1, r1	; 0x01
     efc:	1a 82       	std	Y+2, r1	; 0x02
     efe:	1b 82       	std	Y+3, r1	; 0x03
     f00:	1c 82       	std	Y+4, r1	; 0x04
     f02:	74 ce       	rjmp	.-792    	; 0xbec <bmp085Convert+0xa4>

00000f04 <BMP085_Calibration>:
//----------------------------------------
// 
//----------------------------------------

void BMP085_Calibration(int16_t BMP085_calibration_int16_t[],int16_t BMP085_calibration_uint16_t[], uint8_t* errorcode)
{
     f04:	ef 92       	push	r14
     f06:	ff 92       	push	r15
     f08:	0f 93       	push	r16
     f0a:	1f 93       	push	r17
     f0c:	cf 93       	push	r28
     f0e:	df 93       	push	r29
     f10:	8c 01       	movw	r16, r24
     f12:	7b 01       	movw	r14, r22
     f14:	ea 01       	movw	r28, r20
//----------------------------------------
// 
//----------------------------------------
void input_init()
{
	input_DDR &= ~(1<<BMP085_pin);//Input
     f16:	a2 98       	cbi	0x14, 2	; 20
	input_PORT |= (1<<BMP085_pin);//Enable PullUp
     f18:	aa 9a       	sbi	0x15, 2	; 21
void BMP085_Calibration(int16_t BMP085_calibration_int16_t[],int16_t BMP085_calibration_uint16_t[], uint8_t* errorcode)
{
	
	input_init();

	if (*errorcode==0){
     f1a:	88 81       	ld	r24, Y
     f1c:	88 23       	and	r24, r24
     f1e:	39 f0       	breq	.+14     	; 0xf2e <BMP085_Calibration+0x2a>
	if (*errorcode==0){	
		BMP085_calibration_int16_t[7] = bmp085ReadShort(0xBE,errorcode);//md
	}


}
     f20:	df 91       	pop	r29
     f22:	cf 91       	pop	r28
     f24:	1f 91       	pop	r17
     f26:	0f 91       	pop	r16
     f28:	ff 90       	pop	r15
     f2a:	ef 90       	pop	r14
     f2c:	08 95       	ret
{
	
	input_init();

	if (*errorcode==0){
		BMP085_calibration_int16_t[0] = bmp085ReadShort(0xAA,errorcode);//ac1
     f2e:	8a ea       	ldi	r24, 0xAA	; 170
     f30:	ba 01       	movw	r22, r20
     f32:	0e 94 35 04 	call	0x86a	; 0x86a <bmp085ReadShort>
     f36:	f8 01       	movw	r30, r16
     f38:	91 83       	std	Z+1, r25	; 0x01
     f3a:	80 83       	st	Z, r24
	}	
	if (*errorcode==0){	
     f3c:	88 81       	ld	r24, Y
     f3e:	88 23       	and	r24, r24
     f40:	79 f7       	brne	.-34     	; 0xf20 <BMP085_Calibration+0x1c>
		BMP085_calibration_int16_t[1] = bmp085ReadShort(0xAC,errorcode);//ac2
     f42:	8c ea       	ldi	r24, 0xAC	; 172
     f44:	be 01       	movw	r22, r28
     f46:	0e 94 35 04 	call	0x86a	; 0x86a <bmp085ReadShort>
     f4a:	f8 01       	movw	r30, r16
     f4c:	93 83       	std	Z+3, r25	; 0x03
     f4e:	82 83       	std	Z+2, r24	; 0x02
	}
	if (*errorcode==0){	
     f50:	88 81       	ld	r24, Y
     f52:	88 23       	and	r24, r24
     f54:	29 f7       	brne	.-54     	; 0xf20 <BMP085_Calibration+0x1c>
		BMP085_calibration_int16_t[2] = bmp085ReadShort(0xAE,errorcode);//ac3
     f56:	8e ea       	ldi	r24, 0xAE	; 174
     f58:	be 01       	movw	r22, r28
     f5a:	0e 94 35 04 	call	0x86a	; 0x86a <bmp085ReadShort>
     f5e:	f8 01       	movw	r30, r16
     f60:	95 83       	std	Z+5, r25	; 0x05
     f62:	84 83       	std	Z+4, r24	; 0x04
	}
	if (*errorcode==0){	
     f64:	88 81       	ld	r24, Y
     f66:	88 23       	and	r24, r24
     f68:	d9 f6       	brne	.-74     	; 0xf20 <BMP085_Calibration+0x1c>
		BMP085_calibration_uint16_t[0] = bmp085ReadShort(0xB0,errorcode);//ac4
     f6a:	80 eb       	ldi	r24, 0xB0	; 176
     f6c:	be 01       	movw	r22, r28
     f6e:	0e 94 35 04 	call	0x86a	; 0x86a <bmp085ReadShort>
     f72:	f7 01       	movw	r30, r14
     f74:	91 83       	std	Z+1, r25	; 0x01
     f76:	80 83       	st	Z, r24
	}
	if (*errorcode==0){	
     f78:	88 81       	ld	r24, Y
     f7a:	88 23       	and	r24, r24
     f7c:	89 f6       	brne	.-94     	; 0xf20 <BMP085_Calibration+0x1c>
		BMP085_calibration_uint16_t[1] = bmp085ReadShort(0xB2,errorcode);//ac5
     f7e:	82 eb       	ldi	r24, 0xB2	; 178
     f80:	be 01       	movw	r22, r28
     f82:	0e 94 35 04 	call	0x86a	; 0x86a <bmp085ReadShort>
     f86:	f7 01       	movw	r30, r14
     f88:	93 83       	std	Z+3, r25	; 0x03
     f8a:	82 83       	std	Z+2, r24	; 0x02
	}
	if (*errorcode==0){	
     f8c:	88 81       	ld	r24, Y
     f8e:	88 23       	and	r24, r24
     f90:	39 f6       	brne	.-114    	; 0xf20 <BMP085_Calibration+0x1c>
		BMP085_calibration_uint16_t[2] = bmp085ReadShort(0xB4,errorcode);//ac6
     f92:	84 eb       	ldi	r24, 0xB4	; 180
     f94:	be 01       	movw	r22, r28
     f96:	0e 94 35 04 	call	0x86a	; 0x86a <bmp085ReadShort>
     f9a:	f7 01       	movw	r30, r14
     f9c:	95 83       	std	Z+5, r25	; 0x05
     f9e:	84 83       	std	Z+4, r24	; 0x04
	}
	if (*errorcode==0){	
     fa0:	88 81       	ld	r24, Y
     fa2:	88 23       	and	r24, r24
     fa4:	09 f0       	breq	.+2      	; 0xfa8 <BMP085_Calibration+0xa4>
     fa6:	bc cf       	rjmp	.-136    	; 0xf20 <BMP085_Calibration+0x1c>
		BMP085_calibration_int16_t[3] = bmp085ReadShort(0xB6,errorcode);//b1
     fa8:	86 eb       	ldi	r24, 0xB6	; 182
     faa:	be 01       	movw	r22, r28
     fac:	0e 94 35 04 	call	0x86a	; 0x86a <bmp085ReadShort>
     fb0:	f8 01       	movw	r30, r16
     fb2:	97 83       	std	Z+7, r25	; 0x07
     fb4:	86 83       	std	Z+6, r24	; 0x06
	}
	if (*errorcode==0){	
     fb6:	88 81       	ld	r24, Y
     fb8:	88 23       	and	r24, r24
     fba:	09 f0       	breq	.+2      	; 0xfbe <BMP085_Calibration+0xba>
     fbc:	b1 cf       	rjmp	.-158    	; 0xf20 <BMP085_Calibration+0x1c>
		BMP085_calibration_int16_t[4] = bmp085ReadShort(0xB8,errorcode);//b2
     fbe:	88 eb       	ldi	r24, 0xB8	; 184
     fc0:	be 01       	movw	r22, r28
     fc2:	0e 94 35 04 	call	0x86a	; 0x86a <bmp085ReadShort>
     fc6:	f8 01       	movw	r30, r16
     fc8:	91 87       	std	Z+9, r25	; 0x09
     fca:	80 87       	std	Z+8, r24	; 0x08
	}
	if (*errorcode==0){	
     fcc:	88 81       	ld	r24, Y
     fce:	88 23       	and	r24, r24
     fd0:	09 f0       	breq	.+2      	; 0xfd4 <BMP085_Calibration+0xd0>
     fd2:	a6 cf       	rjmp	.-180    	; 0xf20 <BMP085_Calibration+0x1c>
		BMP085_calibration_int16_t[5] = bmp085ReadShort(0xBA,errorcode);//mb
     fd4:	8a eb       	ldi	r24, 0xBA	; 186
     fd6:	be 01       	movw	r22, r28
     fd8:	0e 94 35 04 	call	0x86a	; 0x86a <bmp085ReadShort>
     fdc:	f8 01       	movw	r30, r16
     fde:	93 87       	std	Z+11, r25	; 0x0b
     fe0:	82 87       	std	Z+10, r24	; 0x0a
	}
	if (*errorcode==0){	
     fe2:	88 81       	ld	r24, Y
     fe4:	88 23       	and	r24, r24
     fe6:	09 f0       	breq	.+2      	; 0xfea <BMP085_Calibration+0xe6>
     fe8:	9b cf       	rjmp	.-202    	; 0xf20 <BMP085_Calibration+0x1c>
		BMP085_calibration_int16_t[6] = bmp085ReadShort(0xBC,errorcode);//mc
     fea:	8c eb       	ldi	r24, 0xBC	; 188
     fec:	be 01       	movw	r22, r28
     fee:	0e 94 35 04 	call	0x86a	; 0x86a <bmp085ReadShort>
     ff2:	f8 01       	movw	r30, r16
     ff4:	95 87       	std	Z+13, r25	; 0x0d
     ff6:	84 87       	std	Z+12, r24	; 0x0c
	}
	if (*errorcode==0){	
     ff8:	88 81       	ld	r24, Y
     ffa:	88 23       	and	r24, r24
     ffc:	09 f0       	breq	.+2      	; 0x1000 <BMP085_Calibration+0xfc>
     ffe:	90 cf       	rjmp	.-224    	; 0xf20 <BMP085_Calibration+0x1c>
		BMP085_calibration_int16_t[7] = bmp085ReadShort(0xBE,errorcode);//md
    1000:	8e eb       	ldi	r24, 0xBE	; 190
    1002:	be 01       	movw	r22, r28
    1004:	0e 94 35 04 	call	0x86a	; 0x86a <bmp085ReadShort>
    1008:	f8 01       	movw	r30, r16
    100a:	97 87       	std	Z+15, r25	; 0x0f
    100c:	86 87       	std	Z+14, r24	; 0x0e
	}


}
    100e:	df 91       	pop	r29
    1010:	cf 91       	pop	r28
    1012:	1f 91       	pop	r17
    1014:	0f 91       	pop	r16
    1016:	ff 90       	pop	r15
    1018:	ef 90       	pop	r14
    101a:	08 95       	ret

0000101c <bmp085CalcAltitude>:
// 
//----------------------------------------
int32_t bmp085CalcAltitude(int32_t pressure){
	float temp;
	int32_t altitude;
	temp = (float) pressure/101325;
    101c:	0e 94 f8 12 	call	0x25f0	; 0x25f0 <__floatsisf>
    1020:	20 e8       	ldi	r18, 0x80	; 128
    1022:	36 ee       	ldi	r19, 0xE6	; 230
    1024:	45 ec       	ldi	r20, 0xC5	; 197
    1026:	57 e4       	ldi	r21, 0x47	; 71
    1028:	0e 94 1a 12 	call	0x2434	; 0x2434 <__divsf3>
	temp = 1-pow(temp, 0.19029);
    102c:	22 e6       	ldi	r18, 0x62	; 98
    102e:	3b ed       	ldi	r19, 0xDB	; 219
    1030:	42 e4       	ldi	r20, 0x42	; 66
    1032:	5e e3       	ldi	r21, 0x3E	; 62
    1034:	0e 94 1e 17 	call	0x2e3c	; 0x2e3c <pow>
    1038:	56 2f       	mov	r21, r22
    103a:	47 2f       	mov	r20, r23
    103c:	38 2f       	mov	r19, r24
    103e:	29 2f       	mov	r18, r25
    1040:	60 e0       	ldi	r22, 0x00	; 0
    1042:	70 e0       	ldi	r23, 0x00	; 0
    1044:	80 e8       	ldi	r24, 0x80	; 128
    1046:	9f e3       	ldi	r25, 0x3F	; 63
    1048:	da 01       	movw	r26, r20
    104a:	f9 01       	movw	r30, r18
    104c:	2b 2f       	mov	r18, r27
    104e:	3a 2f       	mov	r19, r26
    1050:	4f 2f       	mov	r20, r31
    1052:	5e 2f       	mov	r21, r30
    1054:	0e 94 ef 10 	call	0x21de	; 0x21de <__subsf3>
	altitude = round(44330*temp*10);
    1058:	20 e0       	ldi	r18, 0x00	; 0
    105a:	3a e2       	ldi	r19, 0x2A	; 42
    105c:	4d e2       	ldi	r20, 0x2D	; 45
    105e:	57 e4       	ldi	r21, 0x47	; 71
    1060:	0e 94 20 11 	call	0x2240	; 0x2240 <__mulsf3>
    1064:	20 e0       	ldi	r18, 0x00	; 0
    1066:	30 e0       	ldi	r19, 0x00	; 0
    1068:	40 e2       	ldi	r20, 0x20	; 32
    106a:	51 e4       	ldi	r21, 0x41	; 65
    106c:	0e 94 20 11 	call	0x2240	; 0x2240 <__mulsf3>
    1070:	0e 94 6a 17 	call	0x2ed4	; 0x2ed4 <round>
    1074:	0e 94 58 13 	call	0x26b0	; 0x26b0 <__fixsfsi>
	//get altitude in dm
	return altitude;
}
    1078:	08 95       	ret

0000107a <adcInit>:
{
  
  uint16_t result;
 									
								
  ADMUX &= ~((1<<REFS1) | (1<<REFS0)); // externe Referenzspannung nutzen (typischerweise Vcc-Pegel)
    107a:	87 b1       	in	r24, 0x07	; 7
    107c:	8f 73       	andi	r24, 0x3F	; 63
    107e:	87 b9       	out	0x07, r24	; 7


  ADCSRA |= ((1<<ADEN) | (1<<ADPS2) | (1<<ADPS1));    	// ADC Prescaler whlen. BIT0 bis BII 2 in ADCSRA
    1080:	86 b1       	in	r24, 0x06	; 6
    1082:	86 68       	ori	r24, 0x86	; 134
    1084:	86 b9       	out	0x06, r24	; 6
                               					    // UND ADC aktivieren



  //Erste conversion anstoen, danach luft der ADC im free run mode
  ADCSRA |= (1<<ADSC);	
    1086:	36 9a       	sbi	0x06, 6	; 6
  

  //Auf Abschluss der Konvertierung warten
  //Das Register ADCSRA wird mit "1<<ADSC" maskiert. Da ADSC den Wert 6 hat, wartet das while 
  //also solange, bis das Bit6 von ADCSRA == 0 wird.
  while (ADCSRA & (1<<ADSC) ) {}
    1088:	36 99       	sbic	0x06, 6	; 6
    108a:	fe cf       	rjmp	.-4      	; 0x1088 <adcInit+0xe>
  	
  //ADCSRA |= (1<<ADIE);		// ADC - > Interrupt Enable		
  
  /* ADCW muss einmal gelesen werden, sonst wird Ergebnis der nchsten
     Wandlung nicht bernommen. */
  result = ADCW;		 
    108c:	84 b1       	in	r24, 0x04	; 4
    108e:	95 b1       	in	r25, 0x05	; 5
   
}
    1090:	08 95       	ret

00001092 <adcRead15>:
{
	uint16_t result=0;
	
	// 	Kanal waehlen(durch Parameterbergabe)	
	//  Kanle 4 bis 7 sind verfgbar
	if ((channel >= 4) && (channel <=7))
    1092:	98 2f       	mov	r25, r24
    1094:	94 50       	subi	r25, 0x04	; 4
    1096:	94 30       	cpi	r25, 0x04	; 4
    1098:	08 f4       	brcc	.+2      	; 0x109c <adcRead15+0xa>
 		ADMUX = channel;                  // 	Kanal waehlen(durch Parameterbergabe)
    109a:	87 b9       	out	0x07, r24	; 7

	//Erste conversion anstoen, danach luft der ADC im free run mode
  	ADCSRA |= (1<<ADSC);	
    109c:	36 9a       	sbi	0x06, 6	; 6
  

  	//Auf Abschluss der Konvertierung warten
	while (ADCSRA & (1<<ADSC) ) {}
    109e:	36 99       	sbic	0x06, 6	; 6
    10a0:	fe cf       	rjmp	.-4      	; 0x109e <adcRead15+0xc>
	
	//result in bit value
	result = ADCW;
    10a2:	44 b1       	in	r20, 0x04	; 4
    10a4:	55 b1       	in	r21, 0x05	; 5
	//convert result into voltage value
	//korrektes runden mit +(divisor>>1)
	//ohne die 16bit casts wrde das zwischenergebnis auf die bitwertigkeit des
	//niedrigsten teil des terms reduziert (hier 8 bit von 100 oder 15)
	result = ((result * (uint16_t)15 * (int16_t)100)+(1023>>1)) / (uint16_t)1023;
    10a6:	2c ed       	ldi	r18, 0xDC	; 220
    10a8:	35 e0       	ldi	r19, 0x05	; 5
    10aa:	42 9f       	mul	r20, r18
    10ac:	c0 01       	movw	r24, r0
    10ae:	43 9f       	mul	r20, r19
    10b0:	90 0d       	add	r25, r0
    10b2:	52 9f       	mul	r21, r18
    10b4:	90 0d       	add	r25, r0
    10b6:	11 24       	eor	r1, r1
    10b8:	81 50       	subi	r24, 0x01	; 1
    10ba:	9e 4f       	sbci	r25, 0xFE	; 254
    10bc:	6f ef       	ldi	r22, 0xFF	; 255
    10be:	73 e0       	ldi	r23, 0x03	; 3
    10c0:	0e 94 2b 16 	call	0x2c56	; 0x2c56 <__udivmodhi4>

	return result;
}
    10c4:	cb 01       	movw	r24, r22
    10c6:	08 95       	ret

000010c8 <adcRead5>:
{
	uint16_t result=0;
	
	// 	Kanal waehlen(durch Parameterbergabe)	
	//  Kanle 4 bis 7 sind verfgbar
	if ((channel >= 4) && (channel <=7))
    10c8:	98 2f       	mov	r25, r24
    10ca:	94 50       	subi	r25, 0x04	; 4
    10cc:	94 30       	cpi	r25, 0x04	; 4
    10ce:	08 f4       	brcc	.+2      	; 0x10d2 <adcRead5+0xa>
 		ADMUX = channel;                  // 	Kanal waehlen(durch Parameterbergabe)
    10d0:	87 b9       	out	0x07, r24	; 7

	//Erste conversion anstoen, danach luft der ADC im free run mode
  	ADCSRA |= (1<<ADSC);	
    10d2:	36 9a       	sbi	0x06, 6	; 6
  

  	//Auf Abschluss der Konvertierung warten
	while (ADCSRA & (1<<ADSC) ) {}
    10d4:	36 99       	sbic	0x06, 6	; 6
    10d6:	fe cf       	rjmp	.-4      	; 0x10d4 <adcRead5+0xc>
	
	//result in bit value
	result = ADCW;
    10d8:	44 b1       	in	r20, 0x04	; 4
    10da:	55 b1       	in	r21, 0x05	; 5
	//convert result into voltage value
	//korrektes runden mit +(divisor>>1)
	//ohne die 16bit casts wrde das zwischenergebnis auf die bitwertigkeit des
	//niedrigsten teil des terms reduziert (hier 8 bit von 100 oder 15)
	result = ((result * (uint16_t)5 * (uint16_t)100) + (1023>>1)) / (uint16_t)1023;
    10dc:	24 ef       	ldi	r18, 0xF4	; 244
    10de:	31 e0       	ldi	r19, 0x01	; 1
    10e0:	42 9f       	mul	r20, r18
    10e2:	c0 01       	movw	r24, r0
    10e4:	43 9f       	mul	r20, r19
    10e6:	90 0d       	add	r25, r0
    10e8:	52 9f       	mul	r21, r18
    10ea:	90 0d       	add	r25, r0
    10ec:	11 24       	eor	r1, r1
    10ee:	81 50       	subi	r24, 0x01	; 1
    10f0:	9e 4f       	sbci	r25, 0xFE	; 254
    10f2:	6f ef       	ldi	r22, 0xFF	; 255
    10f4:	73 e0       	ldi	r23, 0x03	; 3
    10f6:	0e 94 2b 16 	call	0x2c56	; 0x2c56 <__udivmodhi4>

	return result;

}
    10fa:	cb 01       	movw	r24, r22
    10fc:	08 95       	ret

000010fe <myInit>:
	//set_sleep_mode(SLEEP_MODE_PWR_DOWN);


	//fr dogm display
	//initialize lcd-display
	lcd_init();
    10fe:	0e 94 ab 0a 	call	0x1556	; 0x1556 <lcd_init>
	
	
	
	//cpu status led
	DDRA |= (1<<PINA7);
    1102:	d7 9a       	sbi	0x1a, 7	; 26
	PORTA &= ~(1<<PINA7);
    1104:	df 98       	cbi	0x1b, 7	; 27
	
	DDRA |= (1<<PINA0);
    1106:	d0 9a       	sbi	0x1a, 0	; 26
	
	DDRA |= (1<<PINA1);
    1108:	d1 9a       	sbi	0x1a, 1	; 26
	//Enable interrupts for INT0, INT1, INT2	
	//GICR  |= (1<<BIT7) | (1<<BIT6) | (1<<BIT5); 
	GICR |= (1<<BIT5); //only INT2

*/
}
    110a:	08 95       	ret

0000110c <pwmInit>:

#include "pwmInit.h"

void pwmInit(uint16_t compare)
{
	DDRD |= (1<<BIT4) | (1<<BIT5);		//D.4&5 als Ausgnge definieren
    110c:	21 b3       	in	r18, 0x11	; 17
    110e:	20 63       	ori	r18, 0x30	; 48
    1110:	21 bb       	out	0x11, r18	; 17
	
	//PWM, Phase Correct with ICR1 as TOP value
	//TOP: 625
	TCCR1A |= (1<<WGM11);	
    1112:	2f b5       	in	r18, 0x2f	; 47
    1114:	22 60       	ori	r18, 0x02	; 2
    1116:	2f bd       	out	0x2f, r18	; 47
	TCCR1A &= ~(1<<WGM10);	
    1118:	2f b5       	in	r18, 0x2f	; 47
    111a:	2e 7f       	andi	r18, 0xFE	; 254
    111c:	2f bd       	out	0x2f, r18	; 47

	TCCR1B |= (1<<WGM13);
    111e:	2e b5       	in	r18, 0x2e	; 46
    1120:	20 61       	ori	r18, 0x10	; 16
    1122:	2e bd       	out	0x2e, r18	; 46
	TCCR1B &= ~(1<<WGM12);
    1124:	2e b5       	in	r18, 0x2e	; 46
    1126:	27 7f       	andi	r18, 0xF7	; 247
    1128:	2e bd       	out	0x2e, r18	; 46

	ICR1 = 625;
    112a:	21 e7       	ldi	r18, 0x71	; 113
    112c:	32 e0       	ldi	r19, 0x02	; 2
    112e:	37 bd       	out	0x27, r19	; 39
    1130:	26 bd       	out	0x26, r18	; 38
	

	//Nicht invertierende PWM, KanalA -> auf Pin D.5
	//- Clear OC1A/OC1B on Compare Match when up-counting. 
	//- Set OC1A/OC1B on Compare Match when downcounting.
	TCCR1A |= (1<<COM1A1); 	
    1132:	2f b5       	in	r18, 0x2f	; 47
    1134:	20 68       	ori	r18, 0x80	; 128
    1136:	2f bd       	out	0x2f, r18	; 47
	TCCR1A &= ~(1<<COM1A0);
    1138:	2f b5       	in	r18, 0x2f	; 47
    113a:	2f 7b       	andi	r18, 0xBF	; 191
    113c:	2f bd       	out	0x2f, r18	; 47

	//Prescaler = 64
	TCCR1B |= (1<<CS10) | (1<<CS11);
    113e:	2e b5       	in	r18, 0x2e	; 46
    1140:	23 60       	ori	r18, 0x03	; 3
    1142:	2e bd       	out	0x2e, r18	; 46
	TCCR1B |= ~(1<<CS12); 
    1144:	2e b5       	in	r18, 0x2e	; 46
    1146:	2b 6f       	ori	r18, 0xFB	; 251
    1148:	2e bd       	out	0x2e, r18	; 46
		1 	1 	0 	Externer Pin 1, negative Flanke
		1 	1 	1 	Externer Pin 1, positive Flanke 
	*/
	
	//OCR1A->16bit register
	OCR1A=compare;	//Vergleichswert laden
    114a:	9b bd       	out	0x2b, r25	; 43
    114c:	8a bd       	out	0x2a, r24	; 42
	
	
}
    114e:	08 95       	ret

00001150 <pwmUpdate>:


void pwmUpdate(uint16_t compare)
{
	OCR1A=compare;	
    1150:	9b bd       	out	0x2b, r25	; 43
    1152:	8a bd       	out	0x2a, r24	; 42
}
    1154:	08 95       	ret

00001156 <timer_init>:
#include "timerInit.h"

void timer_init(uint16_t compare)
{

	TCCR1B |= (1<<WGM12);	//CTC Mode:
    1156:	2e b5       	in	r18, 0x2e	; 46
    1158:	28 60       	ori	r18, 0x08	; 8
    115a:	2e bd       	out	0x2e, r18	; 46
							//Timer1 zhlt hoch, bei compare match wird er wieder zu 0 gesetzt

	TCCR1B |= (1<<CS10); //Prescaler nicht aktiviert - es liegt der Systemtakt an
    115c:	2e b5       	in	r18, 0x2e	; 46
    115e:	21 60       	ori	r18, 0x01	; 1
    1160:	2e bd       	out	0x2e, r18	; 46
	1 	0 	1 	CK / 1024
	1 	1 	0 	Externer Pin 1, negative Flanke
	1 	1 	1 	Externer Pin 1, positive Flanke 
*/
	
	OCR1A=compare;	//Vergleichswert laden
    1162:	9b bd       	out	0x2b, r25	; 43
    1164:	8a bd       	out	0x2a, r24	; 42
	
	
}
    1166:	08 95       	ret

00001168 <lcd_inc_page>:
/******************************************************************************
 * Changes the internal cursor by s pages
 * s             - number of pages to move
 */ 
uint8_t lcd_inc_page(int8_t s) {
  uint8_t p = lcd_current_page;
    1168:	90 91 68 01 	lds	r25, 0x0168
  p += s;
    116c:	98 0f       	add	r25, r24
  p %= LCD_RAM_PAGES;    //all lcd have lcd_ram_pages which is power of two
    116e:	93 70       	andi	r25, 0x03	; 3
  lcd_current_page = p;
    1170:	90 93 68 01 	sts	0x0168, r25
  return p;
  }
    1174:	89 2f       	mov	r24, r25
    1176:	08 95       	ret

00001178 <lcd_inc_column>:

/******************************************************************************
 * Changes the internal cursor by s columns, including wrapping (if selected)
 * s             - number of columns to move
 */ 
uint8_t lcd_inc_column(int16_t s) {
    1178:	9c 01       	movw	r18, r24
  uint16_t c = lcd_current_column;
    117a:	80 91 69 01 	lds	r24, 0x0169
  c += s;
    117e:	a9 01       	movw	r20, r18
    1180:	48 0f       	add	r20, r24
    1182:	51 1d       	adc	r21, r1
    1184:	ca 01       	movw	r24, r20
#if LCD_WRAP_AROUND == 1
  while (c >= LCD_WIDTH) {
    1186:	44 38       	cpi	r20, 0x84	; 132
    1188:	51 05       	cpc	r21, r1
    118a:	b0 f0       	brcs	.+44     	; 0x11b8 <lcd_inc_column+0x40>
    118c:	40 91 68 01 	lds	r20, 0x0168
    1190:	07 c0       	rjmp	.+14     	; 0x11a0 <lcd_inc_column+0x28>
 * Changes the internal cursor by s pages
 * s             - number of pages to move
 */ 
uint8_t lcd_inc_page(int8_t s) {
  uint8_t p = lcd_current_page;
  p += s;
    1192:	4f 5f       	subi	r20, 0xFF	; 255
  p %= LCD_RAM_PAGES;    //all lcd have lcd_ram_pages which is power of two
    1194:	43 70       	andi	r20, 0x03	; 3
  c += s;
#if LCD_WRAP_AROUND == 1
  while (c >= LCD_WIDTH) {
    if (s > 0) lcd_inc_page(1);
    else       lcd_inc_page(-1);
    if (s > 0) c -= LCD_WIDTH;
    1196:	84 58       	subi	r24, 0x84	; 132
    1198:	90 40       	sbci	r25, 0x00	; 0
 */ 
uint8_t lcd_inc_column(int16_t s) {
  uint16_t c = lcd_current_column;
  c += s;
#if LCD_WRAP_AROUND == 1
  while (c >= LCD_WIDTH) {
    119a:	84 38       	cpi	r24, 0x84	; 132
    119c:	91 05       	cpc	r25, r1
    119e:	50 f0       	brcs	.+20     	; 0x11b4 <lcd_inc_column+0x3c>
    if (s > 0) lcd_inc_page(1);
    11a0:	12 16       	cp	r1, r18
    11a2:	13 06       	cpc	r1, r19
    11a4:	b4 f3       	brlt	.-20     	; 0x1192 <lcd_inc_column+0x1a>
 * Changes the internal cursor by s pages
 * s             - number of pages to move
 */ 
uint8_t lcd_inc_page(int8_t s) {
  uint8_t p = lcd_current_page;
  p += s;
    11a6:	41 50       	subi	r20, 0x01	; 1
  p %= LCD_RAM_PAGES;    //all lcd have lcd_ram_pages which is power of two
    11a8:	43 70       	andi	r20, 0x03	; 3
#if LCD_WRAP_AROUND == 1
  while (c >= LCD_WIDTH) {
    if (s > 0) lcd_inc_page(1);
    else       lcd_inc_page(-1);
    if (s > 0) c -= LCD_WIDTH;
    else       c += LCD_WIDTH;
    11aa:	8c 57       	subi	r24, 0x7C	; 124
    11ac:	9f 4f       	sbci	r25, 0xFF	; 255
 */ 
uint8_t lcd_inc_column(int16_t s) {
  uint16_t c = lcd_current_column;
  c += s;
#if LCD_WRAP_AROUND == 1
  while (c >= LCD_WIDTH) {
    11ae:	84 38       	cpi	r24, 0x84	; 132
    11b0:	91 05       	cpc	r25, r1
    11b2:	b0 f7       	brcc	.-20     	; 0x11a0 <lcd_inc_column+0x28>
    11b4:	40 93 68 01 	sts	0x0168, r20
    else       lcd_inc_page(-1);
    if (s > 0) c -= LCD_WIDTH;
    else       c += LCD_WIDTH;
    }
#endif
  lcd_current_column = c;
    11b8:	80 93 69 01 	sts	0x0169, r24
  return c;
  }
    11bc:	08 95       	ret

000011be <lcd_data>:
/******************************************************************************
 * Writes one data byte
 * data          - the data byte
 */
void lcd_data(uint8_t data) {
  LCD_SELECT();
    11be:	c4 98       	cbi	0x18, 4	; 24
  LCD_DRAM();
    11c0:	dd 9a       	sbi	0x1b, 5	; 27
  spi_write(data);
    11c2:	8f b9       	out	0x0f, r24	; 15
  LCD_UNSELECT();
    11c4:	77 9b       	sbis	0x0e, 7	; 14
    11c6:	fe cf       	rjmp	.-4      	; 0x11c4 <lcd_data+0x6>
    11c8:	c4 9a       	sbi	0x18, 4	; 24
  lcd_inc_column(1);
    11ca:	81 e0       	ldi	r24, 0x01	; 1
    11cc:	90 e0       	ldi	r25, 0x00	; 0
    11ce:	0e 94 bc 08 	call	0x1178	; 0x1178 <lcd_inc_column>
  }
    11d2:	08 95       	ret

000011d4 <lcd_command>:
/******************************************************************************
 * Writes one command byte
 * cmd           - the command byte
 */
void lcd_command(uint8_t cmd) {
  LCD_SELECT();
    11d4:	c4 98       	cbi	0x18, 4	; 24
  LCD_CMD();
    11d6:	dd 98       	cbi	0x1b, 5	; 27
   
  spi_write(cmd);
    11d8:	8f b9       	out	0x0f, r24	; 15
  
  
  //LCD_UNSELECT();
  while(!(SPSR & (1<<SPIF)));
    11da:	77 9b       	sbis	0x0e, 7	; 14
    11dc:	fe cf       	rjmp	.-4      	; 0x11da <lcd_command+0x6>
  PORT_CS |= _BV(PIN_CS);
    11de:	c4 9a       	sbi	0x18, 4	; 24
  }
    11e0:	08 95       	ret

000011e2 <lcd_moveto_xy>:
/******************************************************************************
 * Moves the cursor to the given position
 * pages         - page to move to
 * columns       - column to move to
 */ 
void lcd_moveto_xy(uint8_t page, uint8_t column) {
    11e2:	0f 93       	push	r16
    11e4:	1f 93       	push	r17
    11e6:	18 2f       	mov	r17, r24
    11e8:	06 2f       	mov	r16, r22
  LCD_GOTO_ADDRESS(page,column);
    11ea:	8f 70       	andi	r24, 0x0F	; 15
    11ec:	80 6b       	ori	r24, 0xB0	; 176
    11ee:	0e 94 ea 08 	call	0x11d4	; 0x11d4 <lcd_command>
    11f2:	80 2f       	mov	r24, r16
    11f4:	82 95       	swap	r24
    11f6:	8f 70       	andi	r24, 0x0F	; 15
    11f8:	80 61       	ori	r24, 0x10	; 16
    11fa:	0e 94 ea 08 	call	0x11d4	; 0x11d4 <lcd_command>
    11fe:	80 2f       	mov	r24, r16
    1200:	8f 70       	andi	r24, 0x0F	; 15
    1202:	0e 94 ea 08 	call	0x11d4	; 0x11d4 <lcd_command>
  lcd_current_column = column; 
    1206:	00 93 69 01 	sts	0x0169, r16
  lcd_current_page = page;
    120a:	10 93 68 01 	sts	0x0168, r17
  }
    120e:	1f 91       	pop	r17
    1210:	0f 91       	pop	r16
    1212:	08 95       	ret

00001214 <lcd_move_xy>:
/******************************************************************************
 * Moves the cursor relative to the current position
 * pages         - number of pages to move
 * columns       - number of columns to move
 */  
void lcd_move_xy(int8_t pages, int16_t columns) {
    1214:	1f 93       	push	r17
/******************************************************************************
 * Changes the internal cursor by s pages
 * s             - number of pages to move
 */ 
uint8_t lcd_inc_page(int8_t s) {
  uint8_t p = lcd_current_page;
    1216:	10 91 68 01 	lds	r17, 0x0168
  p += s;
    121a:	18 0f       	add	r17, r24
  p %= LCD_RAM_PAGES;    //all lcd have lcd_ram_pages which is power of two
    121c:	13 70       	andi	r17, 0x03	; 3
  lcd_current_page = p;
    121e:	10 93 68 01 	sts	0x0168, r17
 * Moves the cursor relative to the current position
 * pages         - number of pages to move
 * columns       - number of columns to move
 */  
void lcd_move_xy(int8_t pages, int16_t columns) {
  lcd_moveto_xy(lcd_inc_page(pages),lcd_inc_column(columns));
    1222:	cb 01       	movw	r24, r22
    1224:	0e 94 bc 08 	call	0x1178	; 0x1178 <lcd_inc_column>
    1228:	68 2f       	mov	r22, r24
    122a:	81 2f       	mov	r24, r17
    122c:	0e 94 f1 08 	call	0x11e2	; 0x11e2 <lcd_moveto_xy>
  }
    1230:	1f 91       	pop	r17
    1232:	08 95       	ret

00001234 <lcd_draw_image_P>:
 * progmem_image - prog_uint8_t array of columns aka the bitmap image
 * pages         - height of image in pages
 * columns       - width of image in pixels (or columns)
 * style         - Bit2: sets inverse mode
 */  
void lcd_draw_image_P(PGM_P progmem_image, uint8_t pages, uint8_t columns, uint8_t style) {
    1234:	bf 92       	push	r11
    1236:	cf 92       	push	r12
    1238:	df 92       	push	r13
    123a:	ef 92       	push	r14
    123c:	ff 92       	push	r15
    123e:	0f 93       	push	r16
    1240:	1f 93       	push	r17
    1242:	cf 93       	push	r28
    1244:	df 93       	push	r29
    1246:	f8 2e       	mov	r15, r24
    1248:	09 2f       	mov	r16, r25
    124a:	e6 2e       	mov	r14, r22
    124c:	d4 2e       	mov	r13, r20
    124e:	c2 2e       	mov	r12, r18
	uint8_t i,j = 0;
  uint8_t inv = (style & INVERT_BIT);
    1250:	84 e0       	ldi	r24, 0x04	; 4
    1252:	c8 22       	and	r12, r24
	while(j<pages && (lcd_get_position_page() < LCD_RAM_PAGES)) {
    1254:	66 23       	and	r22, r22
    1256:	49 f1       	breq	.+82     	; 0x12aa <lcd_draw_image_P+0x76>
    1258:	80 91 68 01 	lds	r24, 0x0168
    125c:	84 30       	cpi	r24, 0x04	; 4
    125e:	28 f5       	brcc	.+74     	; 0x12aa <lcd_draw_image_P+0x76>
    1260:	bb 24       	eor	r11, r11
				lcd_data(tmp);
			else
				lcd_data(~tmp);
      }
    if(++j != pages)
      lcd_move_xy(1,-columns);
    1262:	c4 2f       	mov	r28, r20
    1264:	d0 e0       	ldi	r29, 0x00	; 0
    1266:	d0 95       	com	r29
    1268:	c1 95       	neg	r28
    126a:	df 4f       	sbci	r29, 0xFF	; 255
 */  
void lcd_draw_image_P(PGM_P progmem_image, uint8_t pages, uint8_t columns, uint8_t style) {
	uint8_t i,j = 0;
  uint8_t inv = (style & INVERT_BIT);
	while(j<pages && (lcd_get_position_page() < LCD_RAM_PAGES)) {
		for (i=0; i<columns && (lcd_get_position_column() < LCD_WIDTH); i++) {
    126c:	dd 20       	and	r13, r13
    126e:	d1 f0       	breq	.+52     	; 0x12a4 <lcd_draw_image_P+0x70>
    1270:	80 91 69 01 	lds	r24, 0x0169
    1274:	84 38       	cpi	r24, 0x84	; 132
    1276:	b0 f4       	brcc	.+44     	; 0x12a4 <lcd_draw_image_P+0x70>
    1278:	80 2f       	mov	r24, r16
    127a:	0f 2d       	mov	r16, r15
    127c:	18 2f       	mov	r17, r24
    127e:	04 c0       	rjmp	.+8      	; 0x1288 <lcd_draw_image_P+0x54>
    1280:	80 91 69 01 	lds	r24, 0x0169
    1284:	84 38       	cpi	r24, 0x84	; 132
    1286:	60 f4       	brcc	.+24     	; 0x12a0 <lcd_draw_image_P+0x6c>
 * style         - Bit2: sets inverse mode
 */  
void lcd_draw_image_P(PGM_P progmem_image, uint8_t pages, uint8_t columns, uint8_t style) {
	uint8_t i,j = 0;
  uint8_t inv = (style & INVERT_BIT);
	while(j<pages && (lcd_get_position_page() < LCD_RAM_PAGES)) {
    1288:	f8 01       	movw	r30, r16
		for (i=0; i<columns && (lcd_get_position_column() < LCD_WIDTH); i++) {
      uint8_t tmp = pgm_read_byte(progmem_image++);
    128a:	0f 5f       	subi	r16, 0xFF	; 255
    128c:	1f 4f       	sbci	r17, 0xFF	; 255
    128e:	84 91       	lpm	r24, Z+
			if(!inv)
    1290:	c1 10       	cpse	r12, r1
				lcd_data(tmp);
			else
				lcd_data(~tmp);
    1292:	80 95       	com	r24
    1294:	0e 94 df 08 	call	0x11be	; 0x11be <lcd_data>
 */  
void lcd_draw_image_P(PGM_P progmem_image, uint8_t pages, uint8_t columns, uint8_t style) {
	uint8_t i,j = 0;
  uint8_t inv = (style & INVERT_BIT);
	while(j<pages && (lcd_get_position_page() < LCD_RAM_PAGES)) {
		for (i=0; i<columns && (lcd_get_position_column() < LCD_WIDTH); i++) {
    1298:	80 2f       	mov	r24, r16
    129a:	8f 19       	sub	r24, r15
    129c:	8d 15       	cp	r24, r13
    129e:	80 f3       	brcs	.-32     	; 0x1280 <lcd_draw_image_P+0x4c>
      uint8_t tmp = pgm_read_byte(progmem_image++);
    12a0:	f0 2e       	mov	r15, r16
    12a2:	01 2f       	mov	r16, r17
			if(!inv)
				lcd_data(tmp);
			else
				lcd_data(~tmp);
      }
    if(++j != pages)
    12a4:	b3 94       	inc	r11
    12a6:	be 14       	cp	r11, r14
    12a8:	51 f4       	brne	.+20     	; 0x12be <lcd_draw_image_P+0x8a>
      lcd_move_xy(1,-columns);
    }
  }
    12aa:	df 91       	pop	r29
    12ac:	cf 91       	pop	r28
    12ae:	1f 91       	pop	r17
    12b0:	0f 91       	pop	r16
    12b2:	ff 90       	pop	r15
    12b4:	ef 90       	pop	r14
    12b6:	df 90       	pop	r13
    12b8:	cf 90       	pop	r12
    12ba:	bf 90       	pop	r11
    12bc:	08 95       	ret
				lcd_data(tmp);
			else
				lcd_data(~tmp);
      }
    if(++j != pages)
      lcd_move_xy(1,-columns);
    12be:	81 e0       	ldi	r24, 0x01	; 1
    12c0:	be 01       	movw	r22, r28
    12c2:	0e 94 0a 09 	call	0x1214	; 0x1214 <lcd_move_xy>
 * style         - Bit2: sets inverse mode
 */  
void lcd_draw_image_P(PGM_P progmem_image, uint8_t pages, uint8_t columns, uint8_t style) {
	uint8_t i,j = 0;
  uint8_t inv = (style & INVERT_BIT);
	while(j<pages && (lcd_get_position_page() < LCD_RAM_PAGES)) {
    12c6:	be 14       	cp	r11, r14
    12c8:	80 f7       	brcc	.-32     	; 0x12aa <lcd_draw_image_P+0x76>
    12ca:	80 91 68 01 	lds	r24, 0x0168
    12ce:	84 30       	cpi	r24, 0x04	; 4
    12d0:	68 f2       	brcs	.-102    	; 0x126c <lcd_draw_image_P+0x38>
    12d2:	eb cf       	rjmp	.-42     	; 0x12aa <lcd_draw_image_P+0x76>

000012d4 <lcd_draw_image_xy_P>:
 * y             - y start coordinate on the screen (in pixel)
 * pages         - height of image in pages
 * columns       - width of image in pixels
 * style         - Bit2: sets inverse mode
 */
void lcd_draw_image_xy_P(PGM_P progmem_image, uint8_t x, uint8_t y, uint8_t pages, uint8_t columns, uint8_t style) {
    12d4:	2f 92       	push	r2
    12d6:	3f 92       	push	r3
    12d8:	4f 92       	push	r4
    12da:	5f 92       	push	r5
    12dc:	6f 92       	push	r6
    12de:	7f 92       	push	r7
    12e0:	8f 92       	push	r8
    12e2:	9f 92       	push	r9
    12e4:	af 92       	push	r10
    12e6:	bf 92       	push	r11
    12e8:	cf 92       	push	r12
    12ea:	df 92       	push	r13
    12ec:	ef 92       	push	r14
    12ee:	ff 92       	push	r15
    12f0:	0f 93       	push	r16
    12f2:	1f 93       	push	r17
    12f4:	df 93       	push	r29
    12f6:	cf 93       	push	r28
    12f8:	cd b7       	in	r28, 0x3d	; 61
    12fa:	de b7       	in	r29, 0x3e	; 62
    12fc:	28 97       	sbiw	r28, 0x08	; 8
    12fe:	0f b6       	in	r0, 0x3f	; 63
    1300:	f8 94       	cli
    1302:	de bf       	out	0x3e, r29	; 62
    1304:	0f be       	out	0x3f, r0	; 63
    1306:	cd bf       	out	0x3d, r28	; 61
    1308:	6c 01       	movw	r12, r24
	uint16_t i,j;
  uint8_t data   = 0;
  uint8_t inv    = style & INVERT_BIT;
    130a:	34 e0       	ldi	r19, 0x04	; 4
    130c:	e3 22       	and	r14, r19
	uint8_t offset = y & 0x7; //Optimized modulo 8
    130e:	37 e0       	ldi	r19, 0x07	; 7
    1310:	f3 2e       	mov	r15, r19
    1312:	f4 22       	and	r15, r20
	//If there is an offset, we must use an additional page
	if(offset)  
    1314:	09 f0       	breq	.+2      	; 0x1318 <lcd_draw_image_xy_P+0x44>
    pages++;
    1316:	2f 5f       	subi	r18, 0xFF	; 255


//Function to read the current position
extern uint8_t lcd_current_page;
extern uint8_t lcd_current_column;
static inline uint8_t lcd_get_position_page()   {return lcd_current_page;};
    1318:	80 91 68 01 	lds	r24, 0x0168
  //If there is not enough vertical space -> cut image
  if(pages > LCD_RAM_PAGES - lcd_get_position_page())   
    131c:	42 2e       	mov	r4, r18
    131e:	55 24       	eor	r5, r5
    1320:	24 e0       	ldi	r18, 0x04	; 4
    1322:	30 e0       	ldi	r19, 0x00	; 0
    1324:	28 1b       	sub	r18, r24
    1326:	31 09       	sbc	r19, r1
    1328:	24 15       	cp	r18, r4
    132a:	35 05       	cpc	r19, r5
    132c:	24 f4       	brge	.+8      	; 0x1336 <lcd_draw_image_xy_P+0x62>
    pages = LCD_RAM_PAGES - lcd_get_position_page();
    132e:	24 e0       	ldi	r18, 0x04	; 4
    1330:	28 1b       	sub	r18, r24
    1332:	42 2e       	mov	r4, r18
    1334:	55 24       	eor	r5, r5
  //Goto starting point and draw
	lcd_moveto_xy((y>>3), x);
    1336:	84 2f       	mov	r24, r20
    1338:	86 95       	lsr	r24
    133a:	86 95       	lsr	r24
    133c:	86 95       	lsr	r24
    133e:	0e 94 f1 08 	call	0x11e2	; 0x11e2 <lcd_moveto_xy>
 * y             - y start coordinate on the screen (in pixel)
 * pages         - height of image in pages
 * columns       - width of image in pixels
 * style         - Bit2: sets inverse mode
 */
void lcd_draw_image_xy_P(PGM_P progmem_image, uint8_t x, uint8_t y, uint8_t pages, uint8_t columns, uint8_t style) {
    1342:	a0 2e       	mov	r10, r16
    1344:	bb 24       	eor	r11, r11
    1346:	88 27       	eor	r24, r24
    1348:	99 27       	eor	r25, r25
    134a:	8a 19       	sub	r24, r10
    134c:	9b 09       	sbc	r25, r11
    134e:	16 01       	movw	r2, r12
    1350:	28 0e       	add	r2, r24
    1352:	39 1e       	adc	r3, r25
    1354:	da 82       	std	Y+2, r13	; 0x02
    1356:	c9 82       	std	Y+1, r12	; 0x01
  //If there is not enough vertical space -> cut image
  if(pages > LCD_RAM_PAGES - lcd_get_position_page())   
    pages = LCD_RAM_PAGES - lcd_get_position_page();
  //Goto starting point and draw
	lcd_moveto_xy((y>>3), x);
	for (j=0; j<pages; j++) {
    1358:	21 e0       	ldi	r18, 0x01	; 1
    135a:	62 2e       	mov	r6, r18
    135c:	71 2c       	mov	r7, r1
    135e:	88 24       	eor	r8, r8
    1360:	99 24       	eor	r9, r9
		for (i=0; i<columns && (lcd_get_position_column() < LCD_WIDTH); i++){
      data = 0;
      if (!offset || j+1 != pages)
        data = pgm_read_byte(&progmem_image[j*columns + i]) << offset;
			if(j > 0 && offset)
				data |= pgm_read_byte(&progmem_image[(j-1)*columns + i]) >> (8-offset);
    1362:	e8 e0       	ldi	r30, 0x08	; 8
    1364:	f0 e0       	ldi	r31, 0x00	; 0
    1366:	ef 19       	sub	r30, r15
    1368:	f1 09       	sbc	r31, r1
    136a:	fc 83       	std	Y+4, r31	; 0x04
    136c:	eb 83       	std	Y+3, r30	; 0x03
			if(inv)	lcd_data(~data);
      else 		lcd_data(data);
		  }
		if(j+1 != pages)
			lcd_move_xy(1,-columns);
    136e:	8d 83       	std	Y+5, r24	; 0x05
    1370:	9e 83       	std	Y+6, r25	; 0x06
  //If there is not enough vertical space -> cut image
  if(pages > LCD_RAM_PAGES - lcd_get_position_page())   
    pages = LCD_RAM_PAGES - lcd_get_position_page();
  //Goto starting point and draw
	lcd_moveto_xy((y>>3), x);
	for (j=0; j<pages; j++) {
    1372:	84 14       	cp	r8, r4
    1374:	95 04       	cpc	r9, r5
    1376:	08 f0       	brcs	.+2      	; 0x137a <lcd_draw_image_xy_P+0xa6>
    1378:	67 c0       	rjmp	.+206    	; 0x1448 <lcd_draw_image_xy_P+0x174>
		for (i=0; i<columns && (lcd_get_position_column() < LCD_WIDTH); i++){
    137a:	a1 14       	cp	r10, r1
    137c:	b1 04       	cpc	r11, r1
    137e:	09 f4       	brne	.+2      	; 0x1382 <lcd_draw_image_xy_P+0xae>
    1380:	49 c0       	rjmp	.+146    	; 0x1414 <lcd_draw_image_xy_P+0x140>
    1382:	80 91 69 01 	lds	r24, 0x0169
    1386:	84 38       	cpi	r24, 0x84	; 132
    1388:	08 f0       	brcs	.+2      	; 0x138c <lcd_draw_image_xy_P+0xb8>
    138a:	44 c0       	rjmp	.+136    	; 0x1414 <lcd_draw_image_xy_P+0x140>
    138c:	09 81       	ldd	r16, Y+1	; 0x01
    138e:	1a 81       	ldd	r17, Y+2	; 0x02
    1390:	61 01       	movw	r12, r2
    1392:	40 e0       	ldi	r20, 0x00	; 0
    1394:	50 e0       	ldi	r21, 0x00	; 0
    1396:	15 c0       	rjmp	.+42     	; 0x13c2 <lcd_draw_image_xy_P+0xee>
      data = 0;
      if (!offset || j+1 != pages)
        data = pgm_read_byte(&progmem_image[j*columns + i]) << offset;
			if(j > 0 && offset)
				data |= pgm_read_byte(&progmem_image[(j-1)*columns + i]) >> (8-offset);
			if(inv)	lcd_data(~data);
    1398:	80 95       	com	r24
    139a:	4f 83       	std	Y+7, r20	; 0x07
    139c:	58 87       	std	Y+8, r21	; 0x08
    139e:	0e 94 df 08 	call	0x11be	; 0x11be <lcd_data>
    13a2:	4f 81       	ldd	r20, Y+7	; 0x07
    13a4:	58 85       	ldd	r21, Y+8	; 0x08
  if(pages > LCD_RAM_PAGES - lcd_get_position_page())   
    pages = LCD_RAM_PAGES - lcd_get_position_page();
  //Goto starting point and draw
	lcd_moveto_xy((y>>3), x);
	for (j=0; j<pages; j++) {
		for (i=0; i<columns && (lcd_get_position_column() < LCD_WIDTH); i++){
    13a6:	4f 5f       	subi	r20, 0xFF	; 255
    13a8:	5f 4f       	sbci	r21, 0xFF	; 255
    13aa:	4a 15       	cp	r20, r10
    13ac:	5b 05       	cpc	r21, r11
    13ae:	90 f5       	brcc	.+100    	; 0x1414 <lcd_draw_image_xy_P+0x140>
    13b0:	08 94       	sec
    13b2:	c1 1c       	adc	r12, r1
    13b4:	d1 1c       	adc	r13, r1
    13b6:	0f 5f       	subi	r16, 0xFF	; 255
    13b8:	1f 4f       	sbci	r17, 0xFF	; 255
    13ba:	80 91 69 01 	lds	r24, 0x0169
    13be:	84 38       	cpi	r24, 0x84	; 132
    13c0:	48 f5       	brcc	.+82     	; 0x1414 <lcd_draw_image_xy_P+0x140>
      data = 0;
      if (!offset || j+1 != pages)
    13c2:	ff 20       	and	r15, r15
    13c4:	21 f0       	breq	.+8      	; 0x13ce <lcd_draw_image_xy_P+0xfa>
    13c6:	46 14       	cp	r4, r6
    13c8:	57 04       	cpc	r5, r7
    13ca:	09 f4       	brne	.+2      	; 0x13ce <lcd_draw_image_xy_P+0xfa>
    13cc:	56 c0       	rjmp	.+172    	; 0x147a <lcd_draw_image_xy_P+0x1a6>
        data = pgm_read_byte(&progmem_image[j*columns + i]) << offset;
    13ce:	f8 01       	movw	r30, r16
    13d0:	84 91       	lpm	r24, Z+
    13d2:	0f 2c       	mov	r0, r15
    13d4:	01 c0       	rjmp	.+2      	; 0x13d8 <lcd_draw_image_xy_P+0x104>
    13d6:	88 0f       	add	r24, r24
    13d8:	0a 94       	dec	r0
    13da:	ea f7       	brpl	.-6      	; 0x13d6 <lcd_draw_image_xy_P+0x102>
			if(j > 0 && offset)
    13dc:	81 14       	cp	r8, r1
    13de:	91 04       	cpc	r9, r1
    13e0:	61 f0       	breq	.+24     	; 0x13fa <lcd_draw_image_xy_P+0x126>
    13e2:	ff 20       	and	r15, r15
    13e4:	51 f0       	breq	.+20     	; 0x13fa <lcd_draw_image_xy_P+0x126>
				data |= pgm_read_byte(&progmem_image[(j-1)*columns + i]) >> (8-offset);
    13e6:	f6 01       	movw	r30, r12
    13e8:	24 91       	lpm	r18, Z+
    13ea:	30 e0       	ldi	r19, 0x00	; 0
    13ec:	0b 80       	ldd	r0, Y+3	; 0x03
    13ee:	02 c0       	rjmp	.+4      	; 0x13f4 <lcd_draw_image_xy_P+0x120>
    13f0:	35 95       	asr	r19
    13f2:	27 95       	ror	r18
    13f4:	0a 94       	dec	r0
    13f6:	e2 f7       	brpl	.-8      	; 0x13f0 <lcd_draw_image_xy_P+0x11c>
    13f8:	82 2b       	or	r24, r18
			if(inv)	lcd_data(~data);
    13fa:	ee 20       	and	r14, r14
    13fc:	69 f6       	brne	.-102    	; 0x1398 <lcd_draw_image_xy_P+0xc4>
      else 		lcd_data(data);
    13fe:	4f 83       	std	Y+7, r20	; 0x07
    1400:	58 87       	std	Y+8, r21	; 0x08
    1402:	0e 94 df 08 	call	0x11be	; 0x11be <lcd_data>
    1406:	58 85       	ldd	r21, Y+8	; 0x08
    1408:	4f 81       	ldd	r20, Y+7	; 0x07
  if(pages > LCD_RAM_PAGES - lcd_get_position_page())   
    pages = LCD_RAM_PAGES - lcd_get_position_page();
  //Goto starting point and draw
	lcd_moveto_xy((y>>3), x);
	for (j=0; j<pages; j++) {
		for (i=0; i<columns && (lcd_get_position_column() < LCD_WIDTH); i++){
    140a:	4f 5f       	subi	r20, 0xFF	; 255
    140c:	5f 4f       	sbci	r21, 0xFF	; 255
    140e:	4a 15       	cp	r20, r10
    1410:	5b 05       	cpc	r21, r11
    1412:	70 f2       	brcs	.-100    	; 0x13b0 <lcd_draw_image_xy_P+0xdc>
			if(j > 0 && offset)
				data |= pgm_read_byte(&progmem_image[(j-1)*columns + i]) >> (8-offset);
			if(inv)	lcd_data(~data);
      else 		lcd_data(data);
		  }
		if(j+1 != pages)
    1414:	46 14       	cp	r4, r6
    1416:	57 04       	cpc	r5, r7
    1418:	29 f0       	breq	.+10     	; 0x1424 <lcd_draw_image_xy_P+0x150>
			lcd_move_xy(1,-columns);
    141a:	81 e0       	ldi	r24, 0x01	; 1
    141c:	6d 81       	ldd	r22, Y+5	; 0x05
    141e:	7e 81       	ldd	r23, Y+6	; 0x06
    1420:	0e 94 0a 09 	call	0x1214	; 0x1214 <lcd_move_xy>
    1424:	08 94       	sec
    1426:	81 1c       	adc	r8, r1
    1428:	91 1c       	adc	r9, r1
    142a:	08 94       	sec
    142c:	61 1c       	adc	r6, r1
    142e:	71 1c       	adc	r7, r1
    1430:	2a 0c       	add	r2, r10
    1432:	3b 1c       	adc	r3, r11
    1434:	29 81       	ldd	r18, Y+1	; 0x01
    1436:	3a 81       	ldd	r19, Y+2	; 0x02
    1438:	2a 0d       	add	r18, r10
    143a:	3b 1d       	adc	r19, r11
    143c:	3a 83       	std	Y+2, r19	; 0x02
    143e:	29 83       	std	Y+1, r18	; 0x01
  //If there is not enough vertical space -> cut image
  if(pages > LCD_RAM_PAGES - lcd_get_position_page())   
    pages = LCD_RAM_PAGES - lcd_get_position_page();
  //Goto starting point and draw
	lcd_moveto_xy((y>>3), x);
	for (j=0; j<pages; j++) {
    1440:	84 14       	cp	r8, r4
    1442:	95 04       	cpc	r9, r5
    1444:	08 f4       	brcc	.+2      	; 0x1448 <lcd_draw_image_xy_P+0x174>
    1446:	99 cf       	rjmp	.-206    	; 0x137a <lcd_draw_image_xy_P+0xa6>
      else 		lcd_data(data);
		  }
		if(j+1 != pages)
			lcd_move_xy(1,-columns);
	  }
  }
    1448:	28 96       	adiw	r28, 0x08	; 8
    144a:	0f b6       	in	r0, 0x3f	; 63
    144c:	f8 94       	cli
    144e:	de bf       	out	0x3e, r29	; 62
    1450:	0f be       	out	0x3f, r0	; 63
    1452:	cd bf       	out	0x3d, r28	; 61
    1454:	cf 91       	pop	r28
    1456:	df 91       	pop	r29
    1458:	1f 91       	pop	r17
    145a:	0f 91       	pop	r16
    145c:	ff 90       	pop	r15
    145e:	ef 90       	pop	r14
    1460:	df 90       	pop	r13
    1462:	cf 90       	pop	r12
    1464:	bf 90       	pop	r11
    1466:	af 90       	pop	r10
    1468:	9f 90       	pop	r9
    146a:	8f 90       	pop	r8
    146c:	7f 90       	pop	r7
    146e:	6f 90       	pop	r6
    1470:	5f 90       	pop	r5
    1472:	4f 90       	pop	r4
    1474:	3f 90       	pop	r3
    1476:	2f 90       	pop	r2
    1478:	08 95       	ret
    pages = LCD_RAM_PAGES - lcd_get_position_page();
  //Goto starting point and draw
	lcd_moveto_xy((y>>3), x);
	for (j=0; j<pages; j++) {
		for (i=0; i<columns && (lcd_get_position_column() < LCD_WIDTH); i++){
      data = 0;
    147a:	80 e0       	ldi	r24, 0x00	; 0
    147c:	af cf       	rjmp	.-162    	; 0x13dc <lcd_draw_image_xy_P+0x108>

0000147e <lcd_clear_area>:
 * pages         - height of area in pages
 * columns       - width of area in pixels
 * style         - Bit2: sets inverse mode
 * Cursor is moved to start of area after clear
 */
void lcd_clear_area(uint8_t pages, uint8_t columns, uint8_t style) {
    147e:	df 92       	push	r13
    1480:	ef 92       	push	r14
    1482:	ff 92       	push	r15
    1484:	0f 93       	push	r16
    1486:	1f 93       	push	r17
    1488:	cf 93       	push	r28
    148a:	df 93       	push	r29
  uint8_t i,j,max;
  uint8_t inv = (style & INVERT_BIT)?0xFF:0;
    148c:	42 ff       	sbrs	r20, 2
    148e:	36 c0       	rjmp	.+108    	; 0x14fc <lcd_clear_area+0x7e>
    1490:	0f ef       	ldi	r16, 0xFF	; 255
  
  if(pages > (max = LCD_RAM_PAGES - lcd_get_position_page()))   
    1492:	94 e0       	ldi	r25, 0x04	; 4
    1494:	20 91 68 01 	lds	r18, 0x0168
    1498:	92 1b       	sub	r25, r18
 * style         - Bit2: sets inverse mode
 * Cursor is moved to start of area after clear
 */
void lcd_clear_area(uint8_t pages, uint8_t columns, uint8_t style) {
  uint8_t i,j,max;
  uint8_t inv = (style & INVERT_BIT)?0xFF:0;
    149a:	e8 2e       	mov	r14, r24
    149c:	98 17       	cp	r25, r24
    149e:	08 f4       	brcc	.+2      	; 0x14a2 <lcd_clear_area+0x24>
    14a0:	e9 2e       	mov	r14, r25
static inline uint8_t lcd_get_position_column() {return lcd_current_column;};
    14a2:	90 91 69 01 	lds	r25, 0x0169
  if(pages > (max = LCD_RAM_PAGES - lcd_get_position_page()))   
    pages = max;
  if(columns > (max = LCD_WIDTH - lcd_get_position_column()))   
    columns = max;
  
  for(j=0; j<pages; j++) {
    14a6:	ee 20       	and	r14, r14
    14a8:	d9 f0       	breq	.+54     	; 0x14e0 <lcd_clear_area+0x62>
  uint8_t i,j,max;
  uint8_t inv = (style & INVERT_BIT)?0xFF:0;
  
  if(pages > (max = LCD_RAM_PAGES - lcd_get_position_page()))   
    pages = max;
  if(columns > (max = LCD_WIDTH - lcd_get_position_column()))   
    14aa:	84 e8       	ldi	r24, 0x84	; 132
    14ac:	89 1b       	sub	r24, r25
    columns = max;
  
  for(j=0; j<pages; j++) {
    14ae:	16 2f       	mov	r17, r22
    14b0:	86 17       	cp	r24, r22
    14b2:	30 f1       	brcs	.+76     	; 0x1500 <lcd_clear_area+0x82>
    14b4:	c1 2f       	mov	r28, r17
    14b6:	d0 e0       	ldi	r29, 0x00	; 0
    14b8:	d0 95       	com	r29
    14ba:	c1 95       	neg	r28
    14bc:	df 4f       	sbci	r29, 0xFF	; 255
    14be:	ff 24       	eor	r15, r15
    for(i=0; i<columns; i++) {
    14c0:	11 23       	and	r17, r17
    14c2:	39 f0       	breq	.+14     	; 0x14d2 <lcd_clear_area+0x54>
    14c4:	dd 24       	eor	r13, r13
      lcd_data(inv);
    14c6:	80 2f       	mov	r24, r16
    14c8:	0e 94 df 08 	call	0x11be	; 0x11be <lcd_data>
    pages = max;
  if(columns > (max = LCD_WIDTH - lcd_get_position_column()))   
    columns = max;
  
  for(j=0; j<pages; j++) {
    for(i=0; i<columns; i++) {
    14cc:	d3 94       	inc	r13
    14ce:	d1 16       	cp	r13, r17
    14d0:	d0 f3       	brcs	.-12     	; 0x14c6 <lcd_clear_area+0x48>
      lcd_data(inv);
      }
    lcd_move_xy(1,-columns);
    14d2:	81 e0       	ldi	r24, 0x01	; 1
    14d4:	be 01       	movw	r22, r28
    14d6:	0e 94 0a 09 	call	0x1214	; 0x1214 <lcd_move_xy>
  if(pages > (max = LCD_RAM_PAGES - lcd_get_position_page()))   
    pages = max;
  if(columns > (max = LCD_WIDTH - lcd_get_position_column()))   
    columns = max;
  
  for(j=0; j<pages; j++) {
    14da:	f3 94       	inc	r15
    14dc:	fe 14       	cp	r15, r14
    14de:	80 f3       	brcs	.-32     	; 0x14c0 <lcd_clear_area+0x42>
    for(i=0; i<columns; i++) {
      lcd_data(inv);
      }
    lcd_move_xy(1,-columns);
    }
  lcd_move_xy(-pages,0);
    14e0:	8e 2d       	mov	r24, r14
    14e2:	81 95       	neg	r24
    14e4:	60 e0       	ldi	r22, 0x00	; 0
    14e6:	70 e0       	ldi	r23, 0x00	; 0
    14e8:	0e 94 0a 09 	call	0x1214	; 0x1214 <lcd_move_xy>
  }
    14ec:	df 91       	pop	r29
    14ee:	cf 91       	pop	r28
    14f0:	1f 91       	pop	r17
    14f2:	0f 91       	pop	r16
    14f4:	ff 90       	pop	r15
    14f6:	ef 90       	pop	r14
    14f8:	df 90       	pop	r13
    14fa:	08 95       	ret
 * style         - Bit2: sets inverse mode
 * Cursor is moved to start of area after clear
 */
void lcd_clear_area(uint8_t pages, uint8_t columns, uint8_t style) {
  uint8_t i,j,max;
  uint8_t inv = (style & INVERT_BIT)?0xFF:0;
    14fc:	00 e0       	ldi	r16, 0x00	; 0
    14fe:	c9 cf       	rjmp	.-110    	; 0x1492 <lcd_clear_area+0x14>
  if(pages > (max = LCD_RAM_PAGES - lcd_get_position_page()))   
    pages = max;
  if(columns > (max = LCD_WIDTH - lcd_get_position_column()))   
    columns = max;
  
  for(j=0; j<pages; j++) {
    1500:	18 2f       	mov	r17, r24
    1502:	d8 cf       	rjmp	.-80     	; 0x14b4 <lcd_clear_area+0x36>

00001504 <lcd_clear_area_xy>:
 * style         - style modifier
 * col           - column of upper left corner
 * page          - page of upper left corner
 * Cursor is moved to start of area after clear
 */
void lcd_clear_area_xy(uint8_t pages, uint8_t columns, uint8_t style, uint8_t col, uint8_t page) {
    1504:	ff 92       	push	r15
    1506:	0f 93       	push	r16
    1508:	1f 93       	push	r17
    150a:	df 93       	push	r29
    150c:	cf 93       	push	r28
    150e:	0f 92       	push	r0
    1510:	cd b7       	in	r28, 0x3d	; 61
    1512:	de b7       	in	r29, 0x3e	; 62
    1514:	f8 2e       	mov	r15, r24
    1516:	16 2f       	mov	r17, r22
    1518:	82 2f       	mov	r24, r18
    151a:	60 2f       	mov	r22, r16
  lcd_moveto_xy(col,page);
    151c:	49 83       	std	Y+1, r20	; 0x01
    151e:	0e 94 f1 08 	call	0x11e2	; 0x11e2 <lcd_moveto_xy>
  lcd_clear_area(pages,columns,style);
    1522:	8f 2d       	mov	r24, r15
    1524:	61 2f       	mov	r22, r17
    1526:	49 81       	ldd	r20, Y+1	; 0x01
    1528:	0e 94 3f 0a 	call	0x147e	; 0x147e <lcd_clear_area>
  }
    152c:	0f 90       	pop	r0
    152e:	cf 91       	pop	r28
    1530:	df 91       	pop	r29
    1532:	1f 91       	pop	r17
    1534:	0f 91       	pop	r16
    1536:	ff 90       	pop	r15
    1538:	08 95       	ret

0000153a <init_spi_lcd>:
  */
void init_spi_lcd() {
   
   
   //set MOSI and SCK as output pins
   DDRB |= (1<<PINB5)|(1<<PINB7);
    153a:	87 b3       	in	r24, 0x17	; 23
    153c:	80 6a       	ori	r24, 0xA0	; 160
    153e:	87 bb       	out	0x17, r24	; 23
   
   //set A0, LCD_Reset as outputs
   DDRA |= (1<<PINA5) | (1<<PINA4);
    1540:	8a b3       	in	r24, 0x1a	; 26
    1542:	80 63       	ori	r24, 0x30	; 48
    1544:	8a bb       	out	0x1a, r24	; 26
   
   //set SS` as an output pin
   DDRB |= (1<<PINB4);
    1546:	bc 9a       	sbi	0x17, 4	; 23
		CPOL:   Clock Polarity -> leading edge  = falling edge
							   -> trailing edge = rising edge
		CPHA:	Clock Phase -> Leading edge  = setup
							   Trailing edge = sample
   */
   SPCR = (0<<SPIE) | (1<<SPE) | (0<<DORD) | (1<<MSTR) | (1<<CPOL) | (1<<CPHA) | (0<<SPR1) | (0<<SPR0);
    1548:	8c e5       	ldi	r24, 0x5C	; 92
    154a:	8d b9       	out	0x0d, r24	; 13
         
   
   
   //SPI status register
   //SPI2X: Double SPI Speed Bit -> minimum SCK period will be two CPU clock periods
   SPSR = (1<<SPI2X);
    154c:	81 e0       	ldi	r24, 0x01	; 1
    154e:	8e b9       	out	0x0e, r24	; 14

   SPDR = LCD_NOP; //Do not use 0 here, only LCD_NOP is allowed!
    1550:	83 ee       	ldi	r24, 0xE3	; 227
    1552:	8f b9       	out	0x0f, r24	; 15
   

   
   }
    1554:	08 95       	ret

00001556 <lcd_init>:
/******************************************************************************
  * Initializes the display in 6 o'clock mode, 4x booster for 2.4-3.3V supply voltage
  * scheme according to datasheet
  * Suitable for all DOGS, DOGM and DOGL displays.
  */
void lcd_init() {
    1556:	0f 93       	push	r16
    1558:	1f 93       	push	r17
  //for better understanding -> write macros in clear text


  //set outputs
  //LCD_SET_PIN_DIRECTIONS();
  DDR_A0 |= (1<<PIN_A0);
    155a:	d5 9a       	sbi	0x1a, 5	; 26
  DDR_RST |= (1<<PIN_RST);
    155c:	d4 9a       	sbi	0x1a, 4	; 26
  DDR_CS  |= (1<<PIN_CS);
    155e:	bc 9a       	sbi	0x17, 4	; 23
  
  
  //Initialize SPI Interface
  //LCD_INIT_SPI();   
  init_spi_lcd();
    1560:	0e 94 9d 0a 	call	0x153a	; 0x153a <init_spi_lcd>
    
  
  //Apply Reset to the Display Controller
  //LCD_RESET();
  PORT_RST &= ~(1<<PIN_RST);
    1564:	dc 98       	cbi	0x1b, 4	; 27
    1566:	8f ec       	ldi	r24, 0xCF	; 207
    1568:	97 e0       	ldi	r25, 0x07	; 7
    156a:	01 97       	sbiw	r24, 0x01	; 1
    156c:	f1 f7       	brne	.-4      	; 0x156a <lcd_init+0x14>
    156e:	00 c0       	rjmp	.+0      	; 0x1570 <lcd_init+0x1a>
    1570:	00 00       	nop
  _delay_ms(1);
  PORT_RST |= (1<<PIN_RST);
    1572:	dc 9a       	sbi	0x1b, 4	; 27
  
    
  //Load settings
  
  //(2)
  LCD_SET_FIRST_LINE(0);              //first bit in RAM is on the first line of the LCD
    1574:	80 e4       	ldi	r24, 0x40	; 64
    1576:	0e 94 ea 08 	call	0x11d4	; 0x11d4 <lcd_command>
    157a:	8f ec       	ldi	r24, 0xCF	; 207
    157c:	97 e0       	ldi	r25, 0x07	; 7
    157e:	01 97       	sbiw	r24, 0x01	; 1
    1580:	f1 f7       	brne	.-4      	; 0x157e <lcd_init+0x28>
    1582:	00 c0       	rjmp	.+0      	; 0x1584 <lcd_init+0x2e>
    1584:	00 00       	nop
  //without this delay the content is displayed mirror inverted
  _delay_ms(1); 


  //(8)     
  LCD_SET_BOTTOM_VIEW();              //6 o'clock mode, normal orientation
    1586:	81 ea       	ldi	r24, 0xA1	; 161
    1588:	0e 94 ea 08 	call	0x11d4	; 0x11d4 <lcd_command>
  // |
  //  --> lcd_command(LCD_BOTTOMVIEW)
  //					-> LCD_BOTTOMVIEW = ADC reverse
  //_delay_ms(1);
  //(15)
  LCD_ORIENTATION_NORMAL();
    158c:	80 ec       	ldi	r24, 0xC0	; 192
    158e:	0e 94 ea 08 	call	0x11d4	; 0x11d4 <lcd_command>
    1592:	8f ec       	ldi	r24, 0xCF	; 207
    1594:	97 e0       	ldi	r25, 0x07	; 7
    1596:	01 97       	sbiw	r24, 0x01	; 1
    1598:	f1 f7       	brne	.-4      	; 0x1596 <lcd_init+0x40>
    159a:	00 c0       	rjmp	.+0      	; 0x159c <lcd_init+0x46>
    159c:	00 00       	nop
  // |
  //   --> lcd_command(LCD_SHOW_NORMAL)
  //					-> LCD_SHOW_NORMAL = display all points, normal display (10)
    
  //(9)	
  LCD_SET_MODE_POSITIVE();            //positive display
    159e:	86 ea       	ldi	r24, 0xA6	; 166
    15a0:	0e 94 ea 08 	call	0x11d4	; 0x11d4 <lcd_command>
  //  --> lcd_command(LCD_DISPLAY_POSITIVE)
  //      				-> LCD_DISPLAY_POSITIVE = sets display normal (9)
   
  #if DISPLAY_TYPE == 132
    //(11)
    LCD_SET_BIAS_RATIO_1_9();           //bias 1/9
    15a4:	82 ea       	ldi	r24, 0xA2	; 162
    15a6:	0e 94 ea 08 	call	0x11d4	; 0x11d4 <lcd_command>
    // |
	//  --> lcd_command(LCD_BIAS_1_9)
	
    //(16)	
	LCD_SET_POWER_CONTROL(7);           //power control mode: all features on
    15aa:	8f e2       	ldi	r24, 0x2F	; 47
    15ac:	0e 94 ea 08 	call	0x11d4	; 0x11d4 <lcd_command>
	//  --> lcd_command(LCD_POWER_CONTROL | ((i) & 0x07))  
	//						-> command 16 with operating mode = 0b111
	
	
	//(20) -> selbst eingefgtes macro
	LCD_SET_BOOSTER_RATIO();
    15b0:	80 e0       	ldi	r24, 0x00	; 0
    15b2:	0e 94 ea 08 	call	0x11d4	; 0x11d4 <lcd_command>
	
	
	//(17)
	LCD_SET_BIAS_VOLTAGE(3);            //set voltage regulator R/R
    15b6:	83 e2       	ldi	r24, 0x23	; 35
    15b8:	0e 94 ea 08 	call	0x11d4	; 0x11d4 <lcd_command>
	// |
	//   --> lcd_command(LCD_VOLTAGE | ((i) & 0x07))
	// 						-> command 17 with resistor ration 0b011
    
	//(18)
	LCD_SET_VOLUME_MODE(0x1F);          //volume mode set
    15bc:	81 e8       	ldi	r24, 0x81	; 129
    15be:	0e 94 ea 08 	call	0x11d4	; 0x11d4 <lcd_command>
    15c2:	8f e1       	ldi	r24, 0x1F	; 31
    15c4:	0e 94 ea 08 	call	0x11d4	; 0x11d4 <lcd_command>
	//						-> standard command 18
	//  --> lcd_command(LCD_VOLUME_MODE_2 | ((i) & 0x3F))
	//						-> command 18 with electronic volume value 0b011111
	
	//(19)
	LCD_SET_INDICATOR_OFF();            //switch indicator off, no blinking
    15c8:	8c ea       	ldi	r24, 0xAC	; 172
    15ca:	0e 94 ea 08 	call	0x11d4	; 0x11d4 <lcd_command>
    15ce:	80 e0       	ldi	r24, 0x00	; 0
    15d0:	0e 94 ea 08 	call	0x11d4	; 0x11d4 <lcd_command>
  #endif
  
  
  uint8_t i,j;                        //clear display content
 
 for(j=0;j<LCD_RAM_PAGES;j++) {
    15d4:	10 e0       	ldi	r17, 0x00	; 0
    lcd_moveto_xy(j,0);   // array (uint8_t page, uint8_t column)
    15d6:	81 2f       	mov	r24, r17
    15d8:	60 e0       	ldi	r22, 0x00	; 0
    15da:	0e 94 f1 08 	call	0x11e2	; 0x11e2 <lcd_moveto_xy>
    15de:	04 e8       	ldi	r16, 0x84	; 132
    for (i=0;i<LCD_WIDTH;i++)
      lcd_data(0);
    15e0:	80 e0       	ldi	r24, 0x00	; 0
    15e2:	0e 94 df 08 	call	0x11be	; 0x11be <lcd_data>
    15e6:	01 50       	subi	r16, 0x01	; 1
  
  uint8_t i,j;                        //clear display content
 
 for(j=0;j<LCD_RAM_PAGES;j++) {
    lcd_moveto_xy(j,0);   // array (uint8_t page, uint8_t column)
    for (i=0;i<LCD_WIDTH;i++)
    15e8:	d9 f7       	brne	.-10     	; 0x15e0 <lcd_init+0x8a>
  #endif
  
  
  uint8_t i,j;                        //clear display content
 
 for(j=0;j<LCD_RAM_PAGES;j++) {
    15ea:	1f 5f       	subi	r17, 0xFF	; 255
    15ec:	14 30       	cpi	r17, 0x04	; 4
    15ee:	99 f7       	brne	.-26     	; 0x15d6 <lcd_init+0x80>
    lcd_moveto_xy(j,0);   // array (uint8_t page, uint8_t column)
    for (i=0;i<LCD_WIDTH;i++)
      lcd_data(0);
    }

  lcd_moveto_xy(0,0);                 //Set write pointer
    15f0:	80 e0       	ldi	r24, 0x00	; 0
    15f2:	60 e0       	ldi	r22, 0x00	; 0
    15f4:	0e 94 f1 08 	call	0x11e2	; 0x11e2 <lcd_moveto_xy>
  LCD_SWITCH_ON();                    //Switch display on (1)
    15f8:	8f ea       	ldi	r24, 0xAF	; 175
    15fa:	0e 94 ea 08 	call	0x11d4	; 0x11d4 <lcd_command>
  return;
  }
    15fe:	1f 91       	pop	r17
    1600:	0f 91       	pop	r16
    1602:	08 95       	ret

00001604 <lcd_set_font>:
 * Stores the default font type and style in a global variable
 * font          - Font identifier
 * style         - Style Modifier
 */
inline void lcd_set_font(FONT_P font, uint8_t style){
  global_font_select = font;
    1604:	90 93 6c 01 	sts	0x016C, r25
    1608:	80 93 6b 01 	sts	0x016B, r24
  global_font_style = style;
    160c:	60 93 6a 01 	sts	0x016A, r22
}
    1610:	08 95       	ret

00001612 <font_data>:
 * Loads the pointer to the selected fonts data
 */
inline PGM_P font_data(FONT_P font) {
  PGM_P tmp;
  if (sizeof(tmp) == 2)
    tmp = (PGM_P)pgm_read_word(&(font->data));
    1612:	fc 01       	movw	r30, r24
    1614:	38 96       	adiw	r30, 0x08	; 8
    1616:	25 91       	lpm	r18, Z+
    1618:	34 91       	lpm	r19, Z+
  else
    memcpy_P((char*)&tmp,&(font->data),sizeof(tmp));
  return tmp;
  }
    161a:	c9 01       	movw	r24, r18
    161c:	08 95       	ret

0000161e <font_widthtable>:
 * Loads the pointer to the width table for the selected font
 */
inline PGM_P font_widthtable(FONT_P font) {
  PGM_P tmp;
  if (sizeof(tmp) == 2)
    tmp = (PGM_P)pgm_read_word(&(font->widthtable));
    161e:	fc 01       	movw	r30, r24
    1620:	36 96       	adiw	r30, 0x06	; 6
    1622:	25 91       	lpm	r18, Z+
    1624:	34 91       	lpm	r19, Z+
  else
    memcpy_P((char*)&tmp,&(font->widthtable),sizeof(tmp));
  return tmp;
  }
    1626:	c9 01       	movw	r24, r18
    1628:	08 95       	ret

0000162a <font_get_height_bytes>:
/******************************************************************************
 * Loads the height (in bytes) of the given font
 */
inline uint8_t font_get_height_bytes(FONT_P font) {
  FONT_P tmp = font;
  uint8_t t = pgm_read_byte(&tmp->height);
    162a:	fc 01       	movw	r30, r24
    162c:	33 96       	adiw	r30, 0x03	; 3
    162e:	84 91       	lpm	r24, Z+
  return (((uint8_t)(t-1)>>3)+1);
    1630:	81 50       	subi	r24, 0x01	; 1
    1632:	86 95       	lsr	r24
    1634:	86 95       	lsr	r24
    1636:	86 95       	lsr	r24
  }
    1638:	8f 5f       	subi	r24, 0xFF	; 255
    163a:	08 95       	ret

0000163c <font_get_add_space>:
 * Loads the pointer to the width table for the selected font
 */
inline PGM_P font_widthtable(FONT_P font) {
  PGM_P tmp;
  if (sizeof(tmp) == 2)
    tmp = (PGM_P)pgm_read_word(&(font->widthtable));
    163c:	fc 01       	movw	r30, r24
    163e:	36 96       	adiw	r30, 0x06	; 6
    1640:	25 91       	lpm	r18, Z+
    1642:	34 91       	lpm	r19, Z+
 * Decides if an additional space to the right of the character is needed
 */
inline uint8_t font_get_add_space(FONT_P font, char character) {
  PGM_P type = font_widthtable(font);
  if ( type != 0 ) //if there is a width table, then it's a proportional font
    return 1;
    1644:	81 e0       	ldi	r24, 0x01	; 1
    1646:	21 15       	cp	r18, r1
    1648:	31 05       	cpc	r19, r1
    164a:	09 f4       	brne	.+2      	; 0x164e <font_get_add_space+0x12>
    164c:	80 e0       	ldi	r24, 0x00	; 0
  else
    return 0;
  }
    164e:	08 95       	ret

00001650 <font_get_char_number>:
/******************************************************************************
 * Get the number of the character in the given font
 */
inline int16_t font_get_char_number(FONT_P font, char character) {
  FONT_P tmp = font;
  if (character > pgm_read_byte(&tmp->lastchar)) 
    1650:	fc 01       	movw	r30, r24
    1652:	35 96       	adiw	r30, 0x05	; 5
    1654:	e4 91       	lpm	r30, Z+
    1656:	e6 17       	cp	r30, r22
    1658:	20 f4       	brcc	.+8      	; 0x1662 <font_get_char_number+0x12>
    return -1;
  uint8_t first = pgm_read_byte(&tmp->firstchar);
  if (character < first) 
    return -1;
    165a:	6f ef       	ldi	r22, 0xFF	; 255
    165c:	7f ef       	ldi	r23, 0xFF	; 255
  return character - first;
  }
    165e:	cb 01       	movw	r24, r22
    1660:	08 95       	ret
 */
inline int16_t font_get_char_number(FONT_P font, char character) {
  FONT_P tmp = font;
  if (character > pgm_read_byte(&tmp->lastchar)) 
    return -1;
  uint8_t first = pgm_read_byte(&tmp->firstchar);
    1662:	04 96       	adiw	r24, 0x04	; 4
    1664:	fc 01       	movw	r30, r24
    1666:	84 91       	lpm	r24, Z+
  if (character < first) 
    1668:	68 17       	cp	r22, r24
    166a:	b8 f3       	brcs	.-18     	; 0x165a <font_get_char_number+0xa>
    return -1;
  return character - first;
    166c:	70 e0       	ldi	r23, 0x00	; 0
    166e:	68 1b       	sub	r22, r24
    1670:	71 09       	sbc	r23, r1
    1672:	f5 cf       	rjmp	.-22     	; 0x165e <font_get_char_number+0xe>

00001674 <font_get_char_width>:
 * Loads the pointer to the width table for the selected font
 */
inline PGM_P font_widthtable(FONT_P font) {
  PGM_P tmp;
  if (sizeof(tmp) == 2)
    tmp = (PGM_P)pgm_read_word(&(font->widthtable));
    1674:	fc 01       	movw	r30, r24
    1676:	36 96       	adiw	r30, 0x06	; 6
    1678:	45 91       	lpm	r20, Z+
    167a:	54 91       	lpm	r21, Z+
    167c:	9a 01       	movw	r18, r20
/******************************************************************************
 * Read the width of the selected character from the font width table
 */
inline uint8_t font_get_char_width(FONT_P font, char character) {
  PGM_P table = font_widthtable(font);
  if (table)
    167e:	41 15       	cp	r20, r1
    1680:	51 05       	cpc	r21, r1
    1682:	c1 f0       	breq	.+48     	; 0x16b4 <font_get_char_width+0x40>
/******************************************************************************
 * Get the number of the character in the given font
 */
inline int16_t font_get_char_number(FONT_P font, char character) {
  FONT_P tmp = font;
  if (character > pgm_read_byte(&tmp->lastchar)) 
    1684:	fc 01       	movw	r30, r24
    1686:	35 96       	adiw	r30, 0x05	; 5
    1688:	e4 91       	lpm	r30, Z+
    168a:	e6 17       	cp	r30, r22
    168c:	68 f0       	brcs	.+26     	; 0x16a8 <font_get_char_width+0x34>
    return -1;
  uint8_t first = pgm_read_byte(&tmp->firstchar);
    168e:	04 96       	adiw	r24, 0x04	; 4
    1690:	fc 01       	movw	r30, r24
    1692:	84 91       	lpm	r24, Z+
  if (character < first) 
    1694:	68 17       	cp	r22, r24
    1696:	40 f0       	brcs	.+16     	; 0x16a8 <font_get_char_width+0x34>
    return -1;
  return character - first;
    1698:	e6 2f       	mov	r30, r22
    169a:	f0 e0       	ldi	r31, 0x00	; 0
    169c:	e8 1b       	sub	r30, r24
    169e:	f1 09       	sbc	r31, r1
 * Read the width of the selected character from the font width table
 */
inline uint8_t font_get_char_width(FONT_P font, char character) {
  PGM_P table = font_widthtable(font);
  if (table)
    return pgm_read_byte(table+font_get_char_number(font,character));
    16a0:	e2 0f       	add	r30, r18
    16a2:	f3 1f       	adc	r31, r19
    16a4:	84 91       	lpm	r24, Z+
    16a6:	08 95       	ret
inline int16_t font_get_char_number(FONT_P font, char character) {
  FONT_P tmp = font;
  if (character > pgm_read_byte(&tmp->lastchar)) 
    return -1;
  uint8_t first = pgm_read_byte(&tmp->firstchar);
  if (character < first) 
    16a8:	ef ef       	ldi	r30, 0xFF	; 255
    16aa:	ff ef       	ldi	r31, 0xFF	; 255
 * Read the width of the selected character from the font width table
 */
inline uint8_t font_get_char_width(FONT_P font, char character) {
  PGM_P table = font_widthtable(font);
  if (table)
    return pgm_read_byte(table+font_get_char_number(font,character));
    16ac:	e2 0f       	add	r30, r18
    16ae:	f3 1f       	adc	r31, r19
    16b0:	84 91       	lpm	r24, Z+
    16b2:	08 95       	ret
  else
    return pgm_read_byte(&font->width);
    16b4:	02 96       	adiw	r24, 0x02	; 2
    16b6:	fc 01       	movw	r30, r24
    16b8:	84 91       	lpm	r24, Z+
  }
    16ba:	08 95       	ret

000016bc <font_get_char_position>:


/******************************************************************************
 * Calculate the pointer to the requested character inside the Flash ROM
 */
PGM_P font_get_char_position(FONT_P font, char character) {
    16bc:	0f 93       	push	r16
    16be:	1f 93       	push	r17
    16c0:	cf 93       	push	r28
    16c2:	df 93       	push	r29
/******************************************************************************
 * Get the number of the character in the given font
 */
inline int16_t font_get_char_number(FONT_P font, char character) {
  FONT_P tmp = font;
  if (character > pgm_read_byte(&tmp->lastchar)) 
    16c4:	fc 01       	movw	r30, r24
    16c6:	35 96       	adiw	r30, 0x05	; 5
    16c8:	74 91       	lpm	r23, Z+
    16ca:	76 17       	cp	r23, r22
    16cc:	08 f4       	brcc	.+2      	; 0x16d0 <font_get_char_position+0x14>
    16ce:	46 c0       	rjmp	.+140    	; 0x175c <font_get_char_position+0xa0>
    return -1;
  uint8_t first = pgm_read_byte(&tmp->firstchar);
    16d0:	fc 01       	movw	r30, r24
    16d2:	34 96       	adiw	r30, 0x04	; 4
    16d4:	14 91       	lpm	r17, Z+
  if (character < first) 
    16d6:	61 17       	cp	r22, r17
    16d8:	08 f4       	brcc	.+2      	; 0x16dc <font_get_char_position+0x20>
    16da:	40 c0       	rjmp	.+128    	; 0x175c <font_get_char_position+0xa0>
    return -1;
  return character - first;
    16dc:	46 2f       	mov	r20, r22
    16de:	50 e0       	ldi	r21, 0x00	; 0
    16e0:	41 1b       	sub	r20, r17
    16e2:	51 09       	sbc	r21, r1
 * Loads the pointer to the width table for the selected font
 */
inline PGM_P font_widthtable(FONT_P font) {
  PGM_P tmp;
  if (sizeof(tmp) == 2)
    tmp = (PGM_P)pgm_read_word(&(font->widthtable));
    16e4:	fc 01       	movw	r30, r24
    16e6:	36 96       	adiw	r30, 0x06	; 6
    16e8:	25 91       	lpm	r18, Z+
    16ea:	34 91       	lpm	r19, Z+
  uint16_t ret         = 0;
  int16_t  charnum_ret = font_get_char_number(font, character);
  uint8_t  charnum     = charnum_ret;
  PGM_P    base        = font_widthtable(font);

  if (charnum_ret < 0)     //char not found
    16ec:	57 fd       	sbrc	r21, 7
    16ee:	36 c0       	rjmp	.+108    	; 0x175c <font_get_char_position+0xa0>
 * Calculate the pointer to the requested character inside the Flash ROM
 */
PGM_P font_get_char_position(FONT_P font, char character) {
  uint16_t ret         = 0;
  int16_t  charnum_ret = font_get_char_number(font, character);
  uint8_t  charnum     = charnum_ret;
    16f0:	04 2f       	mov	r16, r20
  PGM_P    base        = font_widthtable(font);

  if (charnum_ret < 0)     //char not found
    return 0;
  if(base == 0)            //fixed width
    16f2:	21 15       	cp	r18, r1
    16f4:	31 05       	cpc	r19, r1
    16f6:	09 f4       	brne	.+2      	; 0x16fa <font_get_char_position+0x3e>
    16f8:	3c c0       	rjmp	.+120    	; 0x1772 <font_get_char_position+0xb6>
    return font_data(font) + (uint16_t)charnum * (uint8_t)(font_get_height_bytes(font) * font_get_char_width(font,character));
  if (charnum)             //proportional width
    16fa:	44 23       	and	r20, r20
    16fc:	09 f4       	brne	.+2      	; 0x1700 <font_get_char_position+0x44>
    16fe:	36 c0       	rjmp	.+108    	; 0x176c <font_get_char_position+0xb0>
    while(charnum--)
    1700:	01 50       	subi	r16, 0x01	; 1


/******************************************************************************
 * Calculate the pointer to the requested character inside the Flash ROM
 */
PGM_P font_get_char_position(FONT_P font, char character) {
    1702:	60 2f       	mov	r22, r16
    1704:	70 e0       	ldi	r23, 0x00	; 0
    1706:	6f 5f       	subi	r22, 0xFF	; 255
    1708:	7f 4f       	sbci	r23, 0xFF	; 255
    170a:	62 0f       	add	r22, r18
    170c:	73 1f       	adc	r23, r19
    170e:	40 e0       	ldi	r20, 0x00	; 0
    1710:	50 e0       	ldi	r21, 0x00	; 0
    1712:	f9 01       	movw	r30, r18
    return 0;
  if(base == 0)            //fixed width
    return font_data(font) + (uint16_t)charnum * (uint8_t)(font_get_height_bytes(font) * font_get_char_width(font,character));
  if (charnum)             //proportional width
    while(charnum--)
      ret += pgm_read_byte(base++);
    1714:	2f 5f       	subi	r18, 0xFF	; 255
    1716:	3f 4f       	sbci	r19, 0xFF	; 255
    1718:	e4 91       	lpm	r30, Z+
    171a:	4e 0f       	add	r20, r30
    171c:	51 1d       	adc	r21, r1
  if (charnum_ret < 0)     //char not found
    return 0;
  if(base == 0)            //fixed width
    return font_data(font) + (uint16_t)charnum * (uint8_t)(font_get_height_bytes(font) * font_get_char_width(font,character));
  if (charnum)             //proportional width
    while(charnum--)
    171e:	26 17       	cp	r18, r22
    1720:	37 07       	cpc	r19, r23
    1722:	b9 f7       	brne	.-18     	; 0x1712 <font_get_char_position+0x56>
 * Loads the pointer to the selected fonts data
 */
inline PGM_P font_data(FONT_P font) {
  PGM_P tmp;
  if (sizeof(tmp) == 2)
    tmp = (PGM_P)pgm_read_word(&(font->data));
    1724:	fc 01       	movw	r30, r24
    1726:	38 96       	adiw	r30, 0x08	; 8
    1728:	25 91       	lpm	r18, Z+
    172a:	34 91       	lpm	r19, Z+
/******************************************************************************
 * Loads the height (in bytes) of the given font
 */
inline uint8_t font_get_height_bytes(FONT_P font) {
  FONT_P tmp = font;
  uint8_t t = pgm_read_byte(&tmp->height);
    172c:	03 96       	adiw	r24, 0x03	; 3
    172e:	fc 01       	movw	r30, r24
    1730:	84 91       	lpm	r24, Z+
  return (((uint8_t)(t-1)>>3)+1);
    1732:	81 50       	subi	r24, 0x01	; 1
    1734:	86 95       	lsr	r24
    1736:	86 95       	lsr	r24
    1738:	86 95       	lsr	r24
    173a:	8f 5f       	subi	r24, 0xFF	; 255
  if(base == 0)            //fixed width
    return font_data(font) + (uint16_t)charnum * (uint8_t)(font_get_height_bytes(font) * font_get_char_width(font,character));
  if (charnum)             //proportional width
    while(charnum--)
      ret += pgm_read_byte(base++);
  return (font_data(font))+ret*font_get_height_bytes(font);
    173c:	90 e0       	ldi	r25, 0x00	; 0
    173e:	84 9f       	mul	r24, r20
    1740:	b0 01       	movw	r22, r0
    1742:	85 9f       	mul	r24, r21
    1744:	70 0d       	add	r23, r0
    1746:	94 9f       	mul	r25, r20
    1748:	70 0d       	add	r23, r0
    174a:	11 24       	eor	r1, r1
    174c:	26 0f       	add	r18, r22
    174e:	37 1f       	adc	r19, r23
  }
    1750:	c9 01       	movw	r24, r18
    1752:	df 91       	pop	r29
    1754:	cf 91       	pop	r28
    1756:	1f 91       	pop	r17
    1758:	0f 91       	pop	r16
    175a:	08 95       	ret
  int16_t  charnum_ret = font_get_char_number(font, character);
  uint8_t  charnum     = charnum_ret;
  PGM_P    base        = font_widthtable(font);

  if (charnum_ret < 0)     //char not found
    return 0;
    175c:	20 e0       	ldi	r18, 0x00	; 0
    175e:	30 e0       	ldi	r19, 0x00	; 0
    return font_data(font) + (uint16_t)charnum * (uint8_t)(font_get_height_bytes(font) * font_get_char_width(font,character));
  if (charnum)             //proportional width
    while(charnum--)
      ret += pgm_read_byte(base++);
  return (font_data(font))+ret*font_get_height_bytes(font);
  }
    1760:	c9 01       	movw	r24, r18
    1762:	df 91       	pop	r29
    1764:	cf 91       	pop	r28
    1766:	1f 91       	pop	r17
    1768:	0f 91       	pop	r16
    176a:	08 95       	ret

/******************************************************************************
 * Calculate the pointer to the requested character inside the Flash ROM
 */
PGM_P font_get_char_position(FONT_P font, char character) {
  uint16_t ret         = 0;
    176c:	40 e0       	ldi	r20, 0x00	; 0
    176e:	50 e0       	ldi	r21, 0x00	; 0
    1770:	d9 cf       	rjmp	.-78     	; 0x1724 <font_get_char_position+0x68>
 * Loads the pointer to the selected fonts data
 */
inline PGM_P font_data(FONT_P font) {
  PGM_P tmp;
  if (sizeof(tmp) == 2)
    tmp = (PGM_P)pgm_read_word(&(font->data));
    1772:	fc 01       	movw	r30, r24
    1774:	38 96       	adiw	r30, 0x08	; 8
    1776:	25 91       	lpm	r18, Z+
    1778:	34 91       	lpm	r19, Z+
    177a:	d9 01       	movw	r26, r18
  PGM_P    base        = font_widthtable(font);

  if (charnum_ret < 0)     //char not found
    return 0;
  if(base == 0)            //fixed width
    return font_data(font) + (uint16_t)charnum * (uint8_t)(font_get_height_bytes(font) * font_get_char_width(font,character));
    177c:	c4 2f       	mov	r28, r20
    177e:	d0 e0       	ldi	r29, 0x00	; 0
/******************************************************************************
 * Loads the height (in bytes) of the given font
 */
inline uint8_t font_get_height_bytes(FONT_P font) {
  FONT_P tmp = font;
  uint8_t t = pgm_read_byte(&tmp->height);
    1780:	fc 01       	movw	r30, r24
    1782:	33 96       	adiw	r30, 0x03	; 3
    1784:	04 91       	lpm	r16, Z+
  return (((uint8_t)(t-1)>>3)+1);
    1786:	01 50       	subi	r16, 0x01	; 1
    1788:	06 95       	lsr	r16
    178a:	06 95       	lsr	r16
    178c:	06 95       	lsr	r16
    178e:	0f 5f       	subi	r16, 0xFF	; 255
 * Loads the pointer to the width table for the selected font
 */
inline PGM_P font_widthtable(FONT_P font) {
  PGM_P tmp;
  if (sizeof(tmp) == 2)
    tmp = (PGM_P)pgm_read_word(&(font->widthtable));
    1790:	20 e0       	ldi	r18, 0x00	; 0
    1792:	30 e0       	ldi	r19, 0x00	; 0
/******************************************************************************
 * Read the width of the selected character from the font width table
 */
inline uint8_t font_get_char_width(FONT_P font, char character) {
  PGM_P table = font_widthtable(font);
  if (table)
    1794:	21 15       	cp	r18, r1
    1796:	31 05       	cpc	r19, r1
    1798:	c9 f0       	breq	.+50     	; 0x17cc <font_get_char_position+0x110>
/******************************************************************************
 * Get the number of the character in the given font
 */
inline int16_t font_get_char_number(FONT_P font, char character) {
  FONT_P tmp = font;
  if (character > pgm_read_byte(&tmp->lastchar)) 
    179a:	76 17       	cp	r23, r22
    179c:	a0 f0       	brcs	.+40     	; 0x17c6 <font_get_char_position+0x10a>
    return -1;
  uint8_t first = pgm_read_byte(&tmp->firstchar);
  if (character < first) 
    179e:	61 17       	cp	r22, r17
    17a0:	90 f0       	brcs	.+36     	; 0x17c6 <font_get_char_position+0x10a>
 * Read the width of the selected character from the font width table
 */
inline uint8_t font_get_char_width(FONT_P font, char character) {
  PGM_P table = font_widthtable(font);
  if (table)
    return pgm_read_byte(table+font_get_char_number(font,character));
    17a2:	24 0f       	add	r18, r20
    17a4:	35 1f       	adc	r19, r21
    17a6:	f9 01       	movw	r30, r18
    17a8:	84 91       	lpm	r24, Z+
  PGM_P    base        = font_widthtable(font);

  if (charnum_ret < 0)     //char not found
    return 0;
  if(base == 0)            //fixed width
    return font_data(font) + (uint16_t)charnum * (uint8_t)(font_get_height_bytes(font) * font_get_char_width(font,character));
    17aa:	80 9f       	mul	r24, r16
    17ac:	80 2d       	mov	r24, r0
    17ae:	11 24       	eor	r1, r1
    17b0:	90 e0       	ldi	r25, 0x00	; 0
    17b2:	8c 9f       	mul	r24, r28
    17b4:	90 01       	movw	r18, r0
    17b6:	8d 9f       	mul	r24, r29
    17b8:	30 0d       	add	r19, r0
    17ba:	9c 9f       	mul	r25, r28
    17bc:	30 0d       	add	r19, r0
    17be:	11 24       	eor	r1, r1
    17c0:	2a 0f       	add	r18, r26
    17c2:	3b 1f       	adc	r19, r27
    17c4:	cd cf       	rjmp	.-102    	; 0x1760 <font_get_char_position+0xa4>
inline int16_t font_get_char_number(FONT_P font, char character) {
  FONT_P tmp = font;
  if (character > pgm_read_byte(&tmp->lastchar)) 
    return -1;
  uint8_t first = pgm_read_byte(&tmp->firstchar);
  if (character < first) 
    17c6:	4f ef       	ldi	r20, 0xFF	; 255
    17c8:	5f ef       	ldi	r21, 0xFF	; 255
    17ca:	eb cf       	rjmp	.-42     	; 0x17a2 <font_get_char_position+0xe6>
inline uint8_t font_get_char_width(FONT_P font, char character) {
  PGM_P table = font_widthtable(font);
  if (table)
    return pgm_read_byte(table+font_get_char_number(font,character));
  else
    return pgm_read_byte(&font->width);
    17cc:	02 96       	adiw	r24, 0x02	; 2
    17ce:	fc 01       	movw	r30, r24
    17d0:	84 91       	lpm	r24, Z+
    17d2:	eb cf       	rjmp	.-42     	; 0x17aa <font_get_char_position+0xee>

000017d4 <lcd_put_char>:
 *****************************************************************************/

/******************************************************************************
 * Outputs a character on the display, using the given font and style
 */
uint8_t lcd_put_char(FONT_P font, uint8_t style, char character) {
    17d4:	2f 92       	push	r2
    17d6:	3f 92       	push	r3
    17d8:	4f 92       	push	r4
    17da:	5f 92       	push	r5
    17dc:	6f 92       	push	r6
    17de:	7f 92       	push	r7
    17e0:	8f 92       	push	r8
    17e2:	9f 92       	push	r9
    17e4:	af 92       	push	r10
    17e6:	bf 92       	push	r11
    17e8:	cf 92       	push	r12
    17ea:	df 92       	push	r13
    17ec:	ef 92       	push	r14
    17ee:	ff 92       	push	r15
    17f0:	0f 93       	push	r16
    17f2:	1f 93       	push	r17
    17f4:	df 93       	push	r29
    17f6:	cf 93       	push	r28
    17f8:	cd b7       	in	r28, 0x3d	; 61
    17fa:	de b7       	in	r29, 0x3e	; 62
    17fc:	2b 97       	sbiw	r28, 0x0b	; 11
    17fe:	0f b6       	in	r0, 0x3f	; 63
    1800:	f8 94       	cli
    1802:	de bf       	out	0x3e, r29	; 62
    1804:	0f be       	out	0x3f, r0	; 63
    1806:	cd bf       	out	0x3d, r28	; 61
    1808:	e4 2e       	mov	r14, r20
  int8_t  i;
  uint8_t row  = 0;                             //current row of char
  uint8_t hc   = (style & DOUBLE_HEIGHT)?1:0;   //height changed
    180a:	bb 24       	eor	r11, r11
    180c:	b3 94       	inc	r11
    180e:	b6 22       	and	r11, r22
  uint8_t wc   = (style & DOUBLE_WIDTH)?1:0;    //width changed
    1810:	06 2f       	mov	r16, r22
    1812:	99 24       	eor	r9, r9
    1814:	93 94       	inc	r9
    1816:	61 ff       	sbrs	r22, 1
    1818:	99 24       	eor	r9, r9
  uint8_t ul   = (style & UNDERLINE)?0x80:0x00; //underline
    181a:	04 ff       	sbrs	r16, 4
    181c:	24 c1       	rjmp	.+584    	; 0x1a66 <lcd_put_char+0x292>
    181e:	30 e8       	ldi	r19, 0x80	; 128
    1820:	53 2e       	mov	r5, r19
  uint8_t inv  = (style & INVERT)?0xFF:0;       //inverted
    1822:	02 ff       	sbrs	r16, 2
    1824:	1e c1       	rjmp	.+572    	; 0x1a62 <lcd_put_char+0x28e>
    1826:	88 24       	eor	r8, r8
    1828:	8a 94       	dec	r8
 * Loads the pointer to the width table for the selected font
 */
inline PGM_P font_widthtable(FONT_P font) {
  PGM_P tmp;
  if (sizeof(tmp) == 2)
    tmp = (PGM_P)pgm_read_word(&(font->widthtable));
    182a:	ac 01       	movw	r20, r24
    182c:	4a 5f       	subi	r20, 0xFA	; 250
    182e:	5f 4f       	sbci	r21, 0xFF	; 255
    1830:	fa 01       	movw	r30, r20
    1832:	65 91       	lpm	r22, Z+
    1834:	74 91       	lpm	r23, Z+
    1836:	9b 01       	movw	r18, r22
/******************************************************************************
 * Read the width of the selected character from the font width table
 */
inline uint8_t font_get_char_width(FONT_P font, char character) {
  PGM_P table = font_widthtable(font);
  if (table)
    1838:	61 15       	cp	r22, r1
    183a:	71 05       	cpc	r23, r1
    183c:	09 f4       	brne	.+2      	; 0x1840 <lcd_put_char+0x6c>
    183e:	17 c1       	rjmp	.+558    	; 0x1a6e <lcd_put_char+0x29a>
/******************************************************************************
 * Get the number of the character in the given font
 */
inline int16_t font_get_char_number(FONT_P font, char character) {
  FONT_P tmp = font;
  if (character > pgm_read_byte(&tmp->lastchar)) 
    1840:	fc 01       	movw	r30, r24
    1842:	35 96       	adiw	r30, 0x05	; 5
    1844:	e4 91       	lpm	r30, Z+
    1846:	ee 15       	cp	r30, r14
    1848:	50 f0       	brcs	.+20     	; 0x185e <lcd_put_char+0x8a>
    return -1;
  uint8_t first = pgm_read_byte(&tmp->firstchar);
    184a:	fc 01       	movw	r30, r24
    184c:	34 96       	adiw	r30, 0x04	; 4
    184e:	64 91       	lpm	r22, Z+
  if (character < first) 
    1850:	e6 16       	cp	r14, r22
    1852:	28 f0       	brcs	.+10     	; 0x185e <lcd_put_char+0x8a>
    return -1;
  return character - first;
    1854:	ee 2d       	mov	r30, r14
    1856:	f0 e0       	ldi	r31, 0x00	; 0
    1858:	e6 1b       	sub	r30, r22
    185a:	f1 09       	sbc	r31, r1
    185c:	02 c0       	rjmp	.+4      	; 0x1862 <lcd_put_char+0x8e>
inline int16_t font_get_char_number(FONT_P font, char character) {
  FONT_P tmp = font;
  if (character > pgm_read_byte(&tmp->lastchar)) 
    return -1;
  uint8_t first = pgm_read_byte(&tmp->firstchar);
  if (character < first) 
    185e:	ef ef       	ldi	r30, 0xFF	; 255
    1860:	ff ef       	ldi	r31, 0xFF	; 255
 * Read the width of the selected character from the font width table
 */
inline uint8_t font_get_char_width(FONT_P font, char character) {
  PGM_P table = font_widthtable(font);
  if (table)
    return pgm_read_byte(table+font_get_char_number(font,character));
    1862:	e2 0f       	add	r30, r18
    1864:	f3 1f       	adc	r31, r19
    1866:	74 90       	lpm	r7, Z+
/******************************************************************************
 * Loads the height (in bytes) of the given font
 */
inline uint8_t font_get_height_bytes(FONT_P font) {
  FONT_P tmp = font;
  uint8_t t = pgm_read_byte(&tmp->height);
    1868:	fc 01       	movw	r30, r24
    186a:	33 96       	adiw	r30, 0x03	; 3
    186c:	a4 90       	lpm	r10, Z+
  return (((uint8_t)(t-1)>>3)+1);
    186e:	aa 94       	dec	r10
    1870:	a6 94       	lsr	r10
    1872:	a6 94       	lsr	r10
    1874:	a6 94       	lsr	r10
    1876:	a3 94       	inc	r10
 * Loads the pointer to the width table for the selected font
 */
inline PGM_P font_widthtable(FONT_P font) {
  PGM_P tmp;
  if (sizeof(tmp) == 2)
    tmp = (PGM_P)pgm_read_word(&(font->widthtable));
    1878:	fa 01       	movw	r30, r20
    187a:	25 91       	lpm	r18, Z+
    187c:	34 91       	lpm	r19, Z+
 * Decides if an additional space to the right of the character is needed
 */
inline uint8_t font_get_add_space(FONT_P font, char character) {
  PGM_P type = font_widthtable(font);
  if ( type != 0 ) //if there is a width table, then it's a proportional font
    return 1;
    187e:	33 24       	eor	r3, r3
    1880:	33 94       	inc	r3
    1882:	21 15       	cp	r18, r1
    1884:	31 05       	cpc	r19, r1
    1886:	09 f4       	brne	.+2      	; 0x188a <lcd_put_char+0xb6>
    1888:	33 24       	eor	r3, r3

  //load information about character
   uint8_t char_width    = font_get_char_width(font,character); 
   uint8_t font_height   = font_get_height_bytes(font);
   uint8_t free_space    = font_get_add_space(font,character);
   PGM_P   tableposition = font_get_char_position(font,character);
    188a:	6e 2d       	mov	r22, r14
    188c:	0e 94 5e 0b 	call	0x16bc	; 0x16bc <font_get_char_position>
    1890:	6c 01       	movw	r12, r24

  //final size of character
  uint8_t char_final_width  = (uint8_t)(char_width+free_space) << wc;
    1892:	23 2d       	mov	r18, r3
    1894:	27 0d       	add	r18, r7
    1896:	09 2c       	mov	r0, r9
    1898:	01 c0       	rjmp	.+2      	; 0x189c <lcd_put_char+0xc8>
    189a:	22 0f       	add	r18, r18
    189c:	0a 94       	dec	r0
    189e:	ea f7       	brpl	.-6      	; 0x189a <lcd_put_char+0xc6>
    18a0:	2b 83       	std	Y+3, r18	; 0x03
  uint8_t char_final_height = (uint8_t)font_height << hc; 
    18a2:	4a 2d       	mov	r20, r10
    18a4:	50 e0       	ldi	r21, 0x00	; 0
    18a6:	4a 2c       	mov	r4, r10
    18a8:	0b 2c       	mov	r0, r11
    18aa:	01 c0       	rjmp	.+2      	; 0x18ae <lcd_put_char+0xda>
    18ac:	44 0c       	add	r4, r4
    18ae:	0a 94       	dec	r0
    18b0:	ea f7       	brpl	.-6      	; 0x18ac <lcd_put_char+0xd8>

  //check for avail. space on display
  if ((style & WRAP) && (LCD_CURRENT_COL() + char_final_width > LCD_WIDTH)) {
    18b2:	03 fd       	sbrc	r16, 3
    18b4:	b9 c0       	rjmp	.+370    	; 0x1a28 <lcd_put_char+0x254>
    18b6:	82 2f       	mov	r24, r18
    18b8:	90 e0       	ldi	r25, 0x00	; 0
    18ba:	9d 83       	std	Y+5, r25	; 0x05
    18bc:	8c 83       	std	Y+4, r24	; 0x04
    LCD_MOVE_TO(LCD_CURRENT_PAGE()+char_final_height,0);
    if (character == ' ') return 0;
    18be:	8c 81       	ldd	r24, Y+4	; 0x04
    18c0:	9d 81       	ldd	r25, Y+5	; 0x05
    18c2:	90 95       	com	r25
    18c4:	81 95       	neg	r24
    18c6:	9f 4f       	sbci	r25, 0xFF	; 255
    18c8:	9a 83       	std	Y+2, r25	; 0x02
    18ca:	89 83       	std	Y+1, r24	; 0x01
    18cc:	87 2d       	mov	r24, r7
    18ce:	90 e0       	ldi	r25, 0x00	; 0
    18d0:	48 9f       	mul	r20, r24
    18d2:	80 01       	movw	r16, r0
    18d4:	49 9f       	mul	r20, r25
    18d6:	10 0d       	add	r17, r0
    18d8:	58 9f       	mul	r21, r24
    18da:	10 0d       	add	r17, r0
    18dc:	11 24       	eor	r1, r1
        LCD_WRITE(tmp);
      }
    if (free_space) {
      uint8_t c = inv;
      if(row == char_final_height-1) {
        c ^= ul; 
    18de:	98 2d       	mov	r25, r8
    18e0:	95 25       	eor	r25, r5
    18e2:	9f 83       	std	Y+7, r25	; 0x07
        if(hc)
          c ^= ul>>1;      
    18e4:	e5 2d       	mov	r30, r5
    18e6:	e6 95       	lsr	r30
    18e8:	9e 27       	eor	r25, r30
    18ea:	9e 83       	std	Y+6, r25	; 0x06
    18ec:	19 86       	std	Y+9, r1	; 0x09
    18ee:	18 86       	std	Y+8, r1	; 0x08
    if (character == ' ') return 0;
    }
  
  //write chracter
  do {
    for(i=(row>>hc); i<char_width*font_height; i+=font_height) {
    18f0:	e4 2c       	mov	r14, r4
    18f2:	ff 24       	eor	r15, r15
    18f4:	08 94       	sec
    18f6:	e1 08       	sbc	r14, r1
    18f8:	f1 08       	sbc	r15, r1
    if (free_space) {
      uint8_t c = inv;
      if(row == char_final_height-1) {
        c ^= ul; 
        if(hc)
          c ^= ul>>1;      
    18fa:	28 85       	ldd	r18, Y+8	; 0x08
    if (character == ' ') return 0;
    }
  
  //write chracter
  do {
    for(i=(row>>hc); i<char_width*font_height; i+=font_height) {
    18fc:	88 85       	ldd	r24, Y+8	; 0x08
    18fe:	99 85       	ldd	r25, Y+9	; 0x09
    1900:	0b 2c       	mov	r0, r11
    1902:	02 c0       	rjmp	.+4      	; 0x1908 <lcd_put_char+0x134>
    1904:	95 95       	asr	r25
    1906:	87 95       	ror	r24
    1908:	0a 94       	dec	r0
    190a:	e2 f7       	brpl	.-8      	; 0x1904 <lcd_put_char+0x130>
    190c:	78 2e       	mov	r7, r24
    190e:	e8 2f       	mov	r30, r24
    1910:	ff 27       	eor	r31, r31
    1912:	e7 fd       	sbrc	r30, 7
    1914:	f0 95       	com	r31
    1916:	e0 17       	cp	r30, r16
    1918:	f1 07       	cpc	r31, r17
    191a:	0c f0       	brlt	.+2      	; 0x191e <lcd_put_char+0x14a>
    191c:	3f c0       	rjmp	.+126    	; 0x199c <lcd_put_char+0x1c8>
      tmp = pgm_read_byte(tableposition+i);
      if(row == char_final_height-1) 
        tmp |= ul;
      if(hc)
        tmp = double_bits((row&1),tmp);
    191e:	66 24       	eor	r6, r6
    1920:	63 94       	inc	r6
    1922:	62 22       	and	r6, r18
    1924:	08 c0       	rjmp	.+16     	; 0x1936 <lcd_put_char+0x162>
 *****************************************************************************/

/******************************************************************************
 * Outputs a character on the display, using the given font and style
 */
uint8_t lcd_put_char(FONT_P font, uint8_t style, char character) {
    1926:	7a 0c       	add	r7, r10
    if (character == ' ') return 0;
    }
  
  //write chracter
  do {
    for(i=(row>>hc); i<char_width*font_height; i+=font_height) {
    1928:	e7 2d       	mov	r30, r7
    192a:	ff 27       	eor	r31, r31
    192c:	e7 fd       	sbrc	r30, 7
    192e:	f0 95       	com	r31
    1930:	e0 17       	cp	r30, r16
    1932:	f1 07       	cpc	r31, r17
    1934:	9c f5       	brge	.+102    	; 0x199c <lcd_put_char+0x1c8>
      tmp = pgm_read_byte(tableposition+i);
    1936:	ec 0d       	add	r30, r12
    1938:	fd 1d       	adc	r31, r13
    193a:	24 90       	lpm	r2, Z+
      if(row == char_final_height-1) 
    193c:	28 85       	ldd	r18, Y+8	; 0x08
    193e:	39 85       	ldd	r19, Y+9	; 0x09
    1940:	2e 15       	cp	r18, r14
    1942:	3f 05       	cpc	r19, r15
    1944:	09 f4       	brne	.+2      	; 0x1948 <lcd_put_char+0x174>
    1946:	64 c0       	rjmp	.+200    	; 0x1a10 <lcd_put_char+0x23c>
        tmp |= ul;
      if(hc)
    1948:	bb 20       	and	r11, r11
    194a:	b1 f0       	breq	.+44     	; 0x1978 <lcd_put_char+0x1a4>
 * part = 1:  abcdefgh -> aabbccdd
 * Used for double height font
 */
inline unsigned char double_bits(uint8_t part, char c) {	
  char t = 0;
  if (part) c = c>>4;
    194c:	66 20       	and	r6, r6
    194e:	19 f0       	breq	.+6      	; 0x1956 <lcd_put_char+0x182>
    1950:	22 94       	swap	r2
    1952:	2f e0       	ldi	r18, 0x0F	; 15
    1954:	22 22       	and	r2, r18
  if (c & 0x08) t  = 0xC0;
    1956:	82 2d       	mov	r24, r2
    1958:	23 fe       	sbrs	r2, 3
    195a:	5c c0       	rjmp	.+184    	; 0x1a14 <lcd_put_char+0x240>
    195c:	90 ec       	ldi	r25, 0xC0	; 192
    195e:	29 2e       	mov	r2, r25
  if (c & 0x04) t |= 0x30;
    1960:	82 ff       	sbrs	r24, 2
    1962:	02 c0       	rjmp	.+4      	; 0x1968 <lcd_put_char+0x194>
    1964:	30 e3       	ldi	r19, 0x30	; 48
    1966:	23 2a       	or	r2, r19
  if (c & 0x02) t |= 0x0C;
    1968:	81 ff       	sbrs	r24, 1
    196a:	02 c0       	rjmp	.+4      	; 0x1970 <lcd_put_char+0x19c>
    196c:	9c e0       	ldi	r25, 0x0C	; 12
    196e:	29 2a       	or	r2, r25
  if (c & 0x01) t |= 0x03;
    1970:	80 ff       	sbrs	r24, 0
    1972:	02 c0       	rjmp	.+4      	; 0x1978 <lcd_put_char+0x1a4>
    1974:	e3 e0       	ldi	r30, 0x03	; 3
    1976:	2e 2a       	or	r2, r30
      tmp = pgm_read_byte(tableposition+i);
      if(row == char_final_height-1) 
        tmp |= ul;
      if(hc)
        tmp = double_bits((row&1),tmp);
      if(inv)
    1978:	81 10       	cpse	r8, r1
        tmp = ~tmp;
    197a:	20 94       	com	r2
      LCD_WRITE(tmp);
    197c:	82 2d       	mov	r24, r2
    197e:	0e 94 df 08 	call	0x11be	; 0x11be <lcd_data>
      if(wc) 
    1982:	99 20       	and	r9, r9
    1984:	81 f2       	breq	.-96     	; 0x1926 <lcd_put_char+0x152>
        LCD_WRITE(tmp);
    1986:	82 2d       	mov	r24, r2
    1988:	0e 94 df 08 	call	0x11be	; 0x11be <lcd_data>
 *****************************************************************************/

/******************************************************************************
 * Outputs a character on the display, using the given font and style
 */
uint8_t lcd_put_char(FONT_P font, uint8_t style, char character) {
    198c:	7a 0c       	add	r7, r10
    if (character == ' ') return 0;
    }
  
  //write chracter
  do {
    for(i=(row>>hc); i<char_width*font_height; i+=font_height) {
    198e:	e7 2d       	mov	r30, r7
    1990:	ff 27       	eor	r31, r31
    1992:	e7 fd       	sbrc	r30, 7
    1994:	f0 95       	com	r31
    1996:	e0 17       	cp	r30, r16
    1998:	f1 07       	cpc	r31, r17
    199a:	6c f2       	brlt	.-102    	; 0x1936 <lcd_put_char+0x162>
        tmp = ~tmp;
      LCD_WRITE(tmp);
      if(wc) 
        LCD_WRITE(tmp);
      }
    if (free_space) {
    199c:	33 20       	and	r3, r3
    199e:	59 f0       	breq	.+22     	; 0x19b6 <lcd_put_char+0x1e2>
      uint8_t c = inv;
      if(row == char_final_height-1) {
    19a0:	28 85       	ldd	r18, Y+8	; 0x08
    19a2:	39 85       	ldd	r19, Y+9	; 0x09
    19a4:	e2 16       	cp	r14, r18
    19a6:	f3 06       	cpc	r15, r19
    19a8:	d9 f1       	breq	.+118    	; 0x1a20 <lcd_put_char+0x24c>
    19aa:	78 2c       	mov	r7, r8
        c ^= ul; 
        if(hc)
          c ^= ul>>1;      
        }
      LCD_WRITE(c);
    19ac:	87 2d       	mov	r24, r7
    19ae:	0e 94 df 08 	call	0x11be	; 0x11be <lcd_data>
      if(wc) 
    19b2:	99 20       	and	r9, r9
    19b4:	89 f5       	brne	.+98     	; 0x1a18 <lcd_put_char+0x244>
        LCD_WRITE(c);
      }
    LCD_MOVE(1,-char_final_width);
    19b6:	81 e0       	ldi	r24, 0x01	; 1
    19b8:	69 81       	ldd	r22, Y+1	; 0x01
    19ba:	7a 81       	ldd	r23, Y+2	; 0x02
    19bc:	0e 94 0a 09 	call	0x1214	; 0x1214 <lcd_move_xy>
    19c0:	88 85       	ldd	r24, Y+8	; 0x08
    19c2:	99 85       	ldd	r25, Y+9	; 0x09
    19c4:	01 96       	adiw	r24, 0x01	; 1
    19c6:	99 87       	std	Y+9, r25	; 0x09
    19c8:	88 87       	std	Y+8, r24	; 0x08
    } while (++row < char_final_height);
    19ca:	84 15       	cp	r24, r4
    19cc:	08 f4       	brcc	.+2      	; 0x19d0 <lcd_put_char+0x1fc>
    19ce:	95 cf       	rjmp	.-214    	; 0x18fa <lcd_put_char+0x126>

  //move cursor to upper right corner of character
  LCD_MOVE(-char_final_height,char_final_width);
    19d0:	84 2d       	mov	r24, r4
    19d2:	81 95       	neg	r24
    19d4:	6c 81       	ldd	r22, Y+4	; 0x04
    19d6:	7d 81       	ldd	r23, Y+5	; 0x05
    19d8:	0e 94 0a 09 	call	0x1214	; 0x1214 <lcd_move_xy>
  return char_final_width;
  }
    19dc:	8b 81       	ldd	r24, Y+3	; 0x03
    19de:	2b 96       	adiw	r28, 0x0b	; 11
    19e0:	0f b6       	in	r0, 0x3f	; 63
    19e2:	f8 94       	cli
    19e4:	de bf       	out	0x3e, r29	; 62
    19e6:	0f be       	out	0x3f, r0	; 63
    19e8:	cd bf       	out	0x3d, r28	; 61
    19ea:	cf 91       	pop	r28
    19ec:	df 91       	pop	r29
    19ee:	1f 91       	pop	r17
    19f0:	0f 91       	pop	r16
    19f2:	ff 90       	pop	r15
    19f4:	ef 90       	pop	r14
    19f6:	df 90       	pop	r13
    19f8:	cf 90       	pop	r12
    19fa:	bf 90       	pop	r11
    19fc:	af 90       	pop	r10
    19fe:	9f 90       	pop	r9
    1a00:	8f 90       	pop	r8
    1a02:	7f 90       	pop	r7
    1a04:	6f 90       	pop	r6
    1a06:	5f 90       	pop	r5
    1a08:	4f 90       	pop	r4
    1a0a:	3f 90       	pop	r3
    1a0c:	2f 90       	pop	r2
    1a0e:	08 95       	ret
  //write chracter
  do {
    for(i=(row>>hc); i<char_width*font_height; i+=font_height) {
      tmp = pgm_read_byte(tableposition+i);
      if(row == char_final_height-1) 
        tmp |= ul;
    1a10:	25 28       	or	r2, r5
    1a12:	9a cf       	rjmp	.-204    	; 0x1948 <lcd_put_char+0x174>
 * part = 0:  abcdefgh -> eeffgghh
 * part = 1:  abcdefgh -> aabbccdd
 * Used for double height font
 */
inline unsigned char double_bits(uint8_t part, char c) {	
  char t = 0;
    1a14:	22 24       	eor	r2, r2
    1a16:	a4 cf       	rjmp	.-184    	; 0x1960 <lcd_put_char+0x18c>
        if(hc)
          c ^= ul>>1;      
        }
      LCD_WRITE(c);
      if(wc) 
        LCD_WRITE(c);
    1a18:	87 2d       	mov	r24, r7
    1a1a:	0e 94 df 08 	call	0x11be	; 0x11be <lcd_data>
    1a1e:	cb cf       	rjmp	.-106    	; 0x19b6 <lcd_put_char+0x1e2>
      }
    if (free_space) {
      uint8_t c = inv;
      if(row == char_final_height-1) {
        c ^= ul; 
        if(hc)
    1a20:	bb 20       	and	r11, r11
    1a22:	19 f1       	breq	.+70     	; 0x1a6a <lcd_put_char+0x296>
          c ^= ul>>1;      
    1a24:	7e 80       	ldd	r7, Y+6	; 0x06
    1a26:	c2 cf       	rjmp	.-124    	; 0x19ac <lcd_put_char+0x1d8>
  //final size of character
  uint8_t char_final_width  = (uint8_t)(char_width+free_space) << wc;
  uint8_t char_final_height = (uint8_t)font_height << hc; 

  //check for avail. space on display
  if ((style & WRAP) && (LCD_CURRENT_COL() + char_final_width > LCD_WIDTH)) {
    1a28:	fb 81       	ldd	r31, Y+3	; 0x03
    1a2a:	ef 2f       	mov	r30, r31
    1a2c:	f0 e0       	ldi	r31, 0x00	; 0
    1a2e:	fd 83       	std	Y+5, r31	; 0x05
    1a30:	ec 83       	std	Y+4, r30	; 0x04
    1a32:	80 91 69 01 	lds	r24, 0x0169
    1a36:	e8 0f       	add	r30, r24
    1a38:	f1 1d       	adc	r31, r1
    1a3a:	e5 38       	cpi	r30, 0x85	; 133
    1a3c:	f1 05       	cpc	r31, r1
    1a3e:	0c f4       	brge	.+2      	; 0x1a42 <lcd_put_char+0x26e>
    1a40:	3e cf       	rjmp	.-388    	; 0x18be <lcd_put_char+0xea>
    LCD_MOVE_TO(LCD_CURRENT_PAGE()+char_final_height,0);
    1a42:	80 91 68 01 	lds	r24, 0x0168
    1a46:	84 0d       	add	r24, r4
    1a48:	60 e0       	ldi	r22, 0x00	; 0
    1a4a:	aa 86       	std	Y+10, r10	; 0x0a
    1a4c:	5b 87       	std	Y+11, r21	; 0x0b
    1a4e:	0e 94 f1 08 	call	0x11e2	; 0x11e2 <lcd_moveto_xy>
    if (character == ' ') return 0;
    1a52:	4a 85       	ldd	r20, Y+10	; 0x0a
    1a54:	5b 85       	ldd	r21, Y+11	; 0x0b
    1a56:	2e 2d       	mov	r18, r14
    1a58:	20 32       	cpi	r18, 0x20	; 32
    1a5a:	09 f0       	breq	.+2      	; 0x1a5e <lcd_put_char+0x28a>
    1a5c:	30 cf       	rjmp	.-416    	; 0x18be <lcd_put_char+0xea>
    1a5e:	1b 82       	std	Y+3, r1	; 0x03
    1a60:	bd cf       	rjmp	.-134    	; 0x19dc <lcd_put_char+0x208>
  int8_t  i;
  uint8_t row  = 0;                             //current row of char
  uint8_t hc   = (style & DOUBLE_HEIGHT)?1:0;   //height changed
  uint8_t wc   = (style & DOUBLE_WIDTH)?1:0;    //width changed
  uint8_t ul   = (style & UNDERLINE)?0x80:0x00; //underline
  uint8_t inv  = (style & INVERT)?0xFF:0;       //inverted
    1a62:	88 24       	eor	r8, r8
    1a64:	e2 ce       	rjmp	.-572    	; 0x182a <lcd_put_char+0x56>
uint8_t lcd_put_char(FONT_P font, uint8_t style, char character) {
  int8_t  i;
  uint8_t row  = 0;                             //current row of char
  uint8_t hc   = (style & DOUBLE_HEIGHT)?1:0;   //height changed
  uint8_t wc   = (style & DOUBLE_WIDTH)?1:0;    //width changed
  uint8_t ul   = (style & UNDERLINE)?0x80:0x00; //underline
    1a66:	55 24       	eor	r5, r5
    1a68:	dc ce       	rjmp	.-584    	; 0x1822 <lcd_put_char+0x4e>
        LCD_WRITE(tmp);
      }
    if (free_space) {
      uint8_t c = inv;
      if(row == char_final_height-1) {
        c ^= ul; 
    1a6a:	7f 80       	ldd	r7, Y+7	; 0x07
    1a6c:	9f cf       	rjmp	.-194    	; 0x19ac <lcd_put_char+0x1d8>
inline uint8_t font_get_char_width(FONT_P font, char character) {
  PGM_P table = font_widthtable(font);
  if (table)
    return pgm_read_byte(table+font_get_char_number(font,character));
  else
    return pgm_read_byte(&font->width);
    1a6e:	fc 01       	movw	r30, r24
    1a70:	32 96       	adiw	r30, 0x02	; 2
    1a72:	74 90       	lpm	r7, Z+
    1a74:	f9 ce       	rjmp	.-526    	; 0x1868 <lcd_put_char+0x94>

00001a76 <lcd_put_string_P>:

/******************************************************************************
 * Outputs a string on the display, loading it from the program memory,
 * using the given font and style
 */
uint16_t lcd_put_string_P(FONT_P font, uint8_t style, PGM_P str) {
    1a76:	df 92       	push	r13
    1a78:	ef 92       	push	r14
    1a7a:	ff 92       	push	r15
    1a7c:	0f 93       	push	r16
    1a7e:	1f 93       	push	r17
    1a80:	cf 93       	push	r28
    1a82:	df 93       	push	r29
    1a84:	7c 01       	movw	r14, r24
    1a86:	d6 2e       	mov	r13, r22
    1a88:	ea 01       	movw	r28, r20
  unsigned char t;
  uint16_t length = 0;
  while((t = pgm_read_byte(str++))) 
    1a8a:	fa 01       	movw	r30, r20
    1a8c:	44 91       	lpm	r20, Z+
    1a8e:	44 23       	and	r20, r20
    1a90:	b9 f0       	breq	.+46     	; 0x1ac0 <lcd_put_string_P+0x4a>
    1a92:	21 96       	adiw	r28, 0x01	; 1
 * Outputs a string on the display, loading it from the program memory,
 * using the given font and style
 */
uint16_t lcd_put_string_P(FONT_P font, uint8_t style, PGM_P str) {
  unsigned char t;
  uint16_t length = 0;
    1a94:	00 e0       	ldi	r16, 0x00	; 0
    1a96:	10 e0       	ldi	r17, 0x00	; 0
  while((t = pgm_read_byte(str++))) 
    length += lcd_put_char(font,style,t);
    1a98:	c7 01       	movw	r24, r14
    1a9a:	6d 2d       	mov	r22, r13
    1a9c:	0e 94 ea 0b 	call	0x17d4	; 0x17d4 <lcd_put_char>
    1aa0:	08 0f       	add	r16, r24
    1aa2:	11 1d       	adc	r17, r1
    1aa4:	fe 01       	movw	r30, r28
 * using the given font and style
 */
uint16_t lcd_put_string_P(FONT_P font, uint8_t style, PGM_P str) {
  unsigned char t;
  uint16_t length = 0;
  while((t = pgm_read_byte(str++))) 
    1aa6:	21 96       	adiw	r28, 0x01	; 1
    1aa8:	44 91       	lpm	r20, Z+
    1aaa:	44 23       	and	r20, r20
    1aac:	a9 f7       	brne	.-22     	; 0x1a98 <lcd_put_string_P+0x22>
    length += lcd_put_char(font,style,t);
  return length;
  }
    1aae:	c8 01       	movw	r24, r16
    1ab0:	df 91       	pop	r29
    1ab2:	cf 91       	pop	r28
    1ab4:	1f 91       	pop	r17
    1ab6:	0f 91       	pop	r16
    1ab8:	ff 90       	pop	r15
    1aba:	ef 90       	pop	r14
    1abc:	df 90       	pop	r13
    1abe:	08 95       	ret
 * Outputs a string on the display, loading it from the program memory,
 * using the given font and style
 */
uint16_t lcd_put_string_P(FONT_P font, uint8_t style, PGM_P str) {
  unsigned char t;
  uint16_t length = 0;
    1ac0:	00 e0       	ldi	r16, 0x00	; 0
    1ac2:	10 e0       	ldi	r17, 0x00	; 0
    1ac4:	f4 cf       	rjmp	.-24     	; 0x1aae <lcd_put_string_P+0x38>

00001ac6 <lcd_put_string>:

  
/******************************************************************************
 * Outputs a string on the display, using the given font and style
 */
uint16_t lcd_put_string(FONT_P font, uint8_t style, char* str) {
    1ac6:	df 92       	push	r13
    1ac8:	ef 92       	push	r14
    1aca:	ff 92       	push	r15
    1acc:	0f 93       	push	r16
    1ace:	1f 93       	push	r17
    1ad0:	cf 93       	push	r28
    1ad2:	df 93       	push	r29
    1ad4:	7c 01       	movw	r14, r24
    1ad6:	d6 2e       	mov	r13, r22
    1ad8:	fa 01       	movw	r30, r20
  unsigned char t;
  uint16_t length = 0;
  while((t = *str++))
    1ada:	40 81       	ld	r20, Z
    1adc:	44 23       	and	r20, r20
    1ade:	c9 f0       	breq	.+50     	; 0x1b12 <lcd_put_string+0x4c>
    1ae0:	8f 01       	movw	r16, r30
    1ae2:	0f 5f       	subi	r16, 0xFF	; 255
    1ae4:	1f 4f       	sbci	r17, 0xFF	; 255
/******************************************************************************
 * Outputs a string on the display, using the given font and style
 */
uint16_t lcd_put_string(FONT_P font, uint8_t style, char* str) {
  unsigned char t;
  uint16_t length = 0;
    1ae6:	c0 e0       	ldi	r28, 0x00	; 0
    1ae8:	d0 e0       	ldi	r29, 0x00	; 0
  while((t = *str++))
    length += lcd_put_char(font,style,t);
    1aea:	c7 01       	movw	r24, r14
    1aec:	6d 2d       	mov	r22, r13
    1aee:	0e 94 ea 0b 	call	0x17d4	; 0x17d4 <lcd_put_char>
    1af2:	c8 0f       	add	r28, r24
    1af4:	d1 1d       	adc	r29, r1
 * Outputs a string on the display, using the given font and style
 */
uint16_t lcd_put_string(FONT_P font, uint8_t style, char* str) {
  unsigned char t;
  uint16_t length = 0;
  while((t = *str++))
    1af6:	f8 01       	movw	r30, r16
    1af8:	41 91       	ld	r20, Z+
    1afa:	8f 01       	movw	r16, r30
    1afc:	44 23       	and	r20, r20
    1afe:	a9 f7       	brne	.-22     	; 0x1aea <lcd_put_string+0x24>
    length += lcd_put_char(font,style,t);
  return length;
  }
    1b00:	ce 01       	movw	r24, r28
    1b02:	df 91       	pop	r29
    1b04:	cf 91       	pop	r28
    1b06:	1f 91       	pop	r17
    1b08:	0f 91       	pop	r16
    1b0a:	ff 90       	pop	r15
    1b0c:	ef 90       	pop	r14
    1b0e:	df 90       	pop	r13
    1b10:	08 95       	ret
/******************************************************************************
 * Outputs a string on the display, using the given font and style
 */
uint16_t lcd_put_string(FONT_P font, uint8_t style, char* str) {
  unsigned char t;
  uint16_t length = 0;
    1b12:	c0 e0       	ldi	r28, 0x00	; 0
    1b14:	d0 e0       	ldi	r29, 0x00	; 0
    1b16:	f4 cf       	rjmp	.-24     	; 0x1b00 <lcd_put_string+0x3a>

00001b18 <lcd_put_string_length>:
  
/******************************************************************************
 * Outputs a string on the display, using the given font and style, reading
 * length characters from the memory
 */ 
uint16_t lcd_put_string_length(FONT_P font, uint8_t style, char* str, uint8_t length) {
    1b18:	8f 92       	push	r8
    1b1a:	9f 92       	push	r9
    1b1c:	bf 92       	push	r11
    1b1e:	cf 92       	push	r12
    1b20:	df 92       	push	r13
    1b22:	ef 92       	push	r14
    1b24:	ff 92       	push	r15
    1b26:	0f 93       	push	r16
    1b28:	1f 93       	push	r17
    1b2a:	cf 93       	push	r28
    1b2c:	df 93       	push	r29
    1b2e:	7c 01       	movw	r14, r24
    1b30:	c6 2e       	mov	r12, r22
    1b32:	d4 2e       	mov	r13, r20
    1b34:	b2 2e       	mov	r11, r18
  unsigned char t;
  uint16_t total_len = 0;
  for(t=0;t<length;t++)
    1b36:	22 23       	and	r18, r18
    1b38:	f9 f0       	breq	.+62     	; 0x1b78 <lcd_put_string_length+0x60>
    1b3a:	84 2e       	mov	r8, r20
    1b3c:	e4 01       	movw	r28, r8
    1b3e:	4e 01       	movw	r8, r28
    1b40:	95 2e       	mov	r9, r21
    1b42:	e4 01       	movw	r28, r8
    1b44:	00 e0       	ldi	r16, 0x00	; 0
    1b46:	10 e0       	ldi	r17, 0x00	; 0
    total_len += lcd_put_char(font,style,*str++);
    1b48:	49 91       	ld	r20, Y+
    1b4a:	c7 01       	movw	r24, r14
    1b4c:	6c 2d       	mov	r22, r12
    1b4e:	0e 94 ea 0b 	call	0x17d4	; 0x17d4 <lcd_put_char>
    1b52:	08 0f       	add	r16, r24
    1b54:	11 1d       	adc	r17, r1
 * length characters from the memory
 */ 
uint16_t lcd_put_string_length(FONT_P font, uint8_t style, char* str, uint8_t length) {
  unsigned char t;
  uint16_t total_len = 0;
  for(t=0;t<length;t++)
    1b56:	4e 01       	movw	r8, r28
    1b58:	8d 18       	sub	r8, r13
    1b5a:	8b 14       	cp	r8, r11
    1b5c:	a8 f3       	brcs	.-22     	; 0x1b48 <lcd_put_string_length+0x30>
    total_len += lcd_put_char(font,style,*str++);
  return total_len;
  }
    1b5e:	c8 01       	movw	r24, r16
    1b60:	df 91       	pop	r29
    1b62:	cf 91       	pop	r28
    1b64:	1f 91       	pop	r17
    1b66:	0f 91       	pop	r16
    1b68:	ff 90       	pop	r15
    1b6a:	ef 90       	pop	r14
    1b6c:	df 90       	pop	r13
    1b6e:	cf 90       	pop	r12
    1b70:	bf 90       	pop	r11
    1b72:	9f 90       	pop	r9
    1b74:	8f 90       	pop	r8
    1b76:	08 95       	ret
 * Outputs a string on the display, using the given font and style, reading
 * length characters from the memory
 */ 
uint16_t lcd_put_string_length(FONT_P font, uint8_t style, char* str, uint8_t length) {
  unsigned char t;
  uint16_t total_len = 0;
    1b78:	00 e0       	ldi	r16, 0x00	; 0
    1b7a:	10 e0       	ldi	r17, 0x00	; 0
    1b7c:	f0 cf       	rjmp	.-32     	; 0x1b5e <lcd_put_string_length+0x46>

00001b7e <lcd_put_string_xy_P>:
/******************************************************************************
 * Outputs a string on the display, using the given font and style, reading
 * the string from program memory. The position of the string on the display
 * is selected by page / col.
 */ 
uint16_t lcd_put_string_xy_P(FONT_P font, uint8_t style, PGM_P str,uint8_t page, uint8_t col) {
    1b7e:	ef 92       	push	r14
    1b80:	ff 92       	push	r15
    1b82:	0f 93       	push	r16
    1b84:	1f 93       	push	r17
    1b86:	cf 93       	push	r28
    1b88:	df 93       	push	r29
    1b8a:	7c 01       	movw	r14, r24
    1b8c:	16 2f       	mov	r17, r22
    1b8e:	ea 01       	movw	r28, r20
    1b90:	82 2f       	mov	r24, r18
    1b92:	60 2f       	mov	r22, r16
  LCD_MOVE_TO(page,col);
    1b94:	0e 94 f1 08 	call	0x11e2	; 0x11e2 <lcd_moveto_xy>
  return lcd_put_string_P(font,style,str);
    1b98:	c7 01       	movw	r24, r14
    1b9a:	61 2f       	mov	r22, r17
    1b9c:	ae 01       	movw	r20, r28
    1b9e:	0e 94 3b 0d 	call	0x1a76	; 0x1a76 <lcd_put_string_P>
  }
    1ba2:	df 91       	pop	r29
    1ba4:	cf 91       	pop	r28
    1ba6:	1f 91       	pop	r17
    1ba8:	0f 91       	pop	r16
    1baa:	ff 90       	pop	r15
    1bac:	ef 90       	pop	r14
    1bae:	08 95       	ret

00001bb0 <lcd_put_char_xy>:
/******************************************************************************
 * Outputs a string on the display, using the given font and style, reading
 * the string from main memory. The position of the string on the display
 * is selected by page / col.
 */ 
uint8_t lcd_put_char_xy(FONT_P font, uint8_t style, char character, uint8_t page, uint8_t col) {
    1bb0:	ef 92       	push	r14
    1bb2:	ff 92       	push	r15
    1bb4:	0f 93       	push	r16
    1bb6:	1f 93       	push	r17
    1bb8:	df 93       	push	r29
    1bba:	cf 93       	push	r28
    1bbc:	0f 92       	push	r0
    1bbe:	cd b7       	in	r28, 0x3d	; 61
    1bc0:	de b7       	in	r29, 0x3e	; 62
    1bc2:	7c 01       	movw	r14, r24
    1bc4:	16 2f       	mov	r17, r22
    1bc6:	82 2f       	mov	r24, r18
    1bc8:	60 2f       	mov	r22, r16
  LCD_MOVE_TO(page,col);
    1bca:	49 83       	std	Y+1, r20	; 0x01
    1bcc:	0e 94 f1 08 	call	0x11e2	; 0x11e2 <lcd_moveto_xy>
  return lcd_put_char(font,style,character);
    1bd0:	c7 01       	movw	r24, r14
    1bd2:	61 2f       	mov	r22, r17
    1bd4:	49 81       	ldd	r20, Y+1	; 0x01
    1bd6:	0e 94 ea 0b 	call	0x17d4	; 0x17d4 <lcd_put_char>
  }
    1bda:	0f 90       	pop	r0
    1bdc:	cf 91       	pop	r28
    1bde:	df 91       	pop	r29
    1be0:	1f 91       	pop	r17
    1be2:	0f 91       	pop	r16
    1be4:	ff 90       	pop	r15
    1be6:	ef 90       	pop	r14
    1be8:	08 95       	ret

00001bea <lcd_putc>:


/******************************************************************************
 * Outputs a character on the display, using the global font and style
 */ 
uint8_t  lcd_putc(char c) {
    1bea:	48 2f       	mov	r20, r24
  return lcd_put_char(global_font_select, global_font_style, c);
    1bec:	80 91 6b 01 	lds	r24, 0x016B
    1bf0:	90 91 6c 01 	lds	r25, 0x016C
    1bf4:	60 91 6a 01 	lds	r22, 0x016A
    1bf8:	0e 94 ea 0b 	call	0x17d4	; 0x17d4 <lcd_put_char>
  }
    1bfc:	08 95       	ret

00001bfe <lcd_putc_xy>:

/******************************************************************************
 * Outputs a character on the display, using the global font and style
 */ 
uint8_t  lcd_putc_xy(char c, uint8_t page, uint8_t col) {
    1bfe:	0f 93       	push	r16
    1c00:	38 2f       	mov	r19, r24
    1c02:	26 2f       	mov	r18, r22
    1c04:	04 2f       	mov	r16, r20
  return lcd_put_char_xy(global_font_select, global_font_style, c, page, col);
    1c06:	80 91 6b 01 	lds	r24, 0x016B
    1c0a:	90 91 6c 01 	lds	r25, 0x016C
    1c0e:	60 91 6a 01 	lds	r22, 0x016A
    1c12:	43 2f       	mov	r20, r19
    1c14:	0e 94 d8 0d 	call	0x1bb0	; 0x1bb0 <lcd_put_char_xy>
  }  
    1c18:	0f 91       	pop	r16
    1c1a:	08 95       	ret

00001c1c <lcd_putstr>:
  
  
/******************************************************************************
 * Outputs a string on the display, using the global font and style
 */   
uint16_t lcd_putstr(char* str) {
    1c1c:	ac 01       	movw	r20, r24
  return lcd_put_string(global_font_select, global_font_style, str);
    1c1e:	80 91 6b 01 	lds	r24, 0x016B
    1c22:	90 91 6c 01 	lds	r25, 0x016C
    1c26:	60 91 6a 01 	lds	r22, 0x016A
    1c2a:	0e 94 63 0d 	call	0x1ac6	; 0x1ac6 <lcd_put_string>
  }
    1c2e:	08 95       	ret

00001c30 <lcd_putstr_P>:
  
/******************************************************************************
 * Outputs a string stored in program memory on the display, using the global 
 * font and style
 */   
uint16_t lcd_putstr_P(PGM_P str) {
    1c30:	ac 01       	movw	r20, r24
  return lcd_put_string_P(global_font_select, global_font_style, str);
    1c32:	80 91 6b 01 	lds	r24, 0x016B
    1c36:	90 91 6c 01 	lds	r25, 0x016C
    1c3a:	60 91 6a 01 	lds	r22, 0x016A
    1c3e:	0e 94 3b 0d 	call	0x1a76	; 0x1a76 <lcd_put_string_P>
  }
    1c42:	08 95       	ret

00001c44 <lcd_putstr_xy_P>:

/******************************************************************************
 * Outputs a string on the display, using the global font and style at the 
 * given position
 */   
uint16_t lcd_putstr_xy_P(PGM_P  str, uint8_t page, uint8_t col) {
    1c44:	0f 93       	push	r16
    1c46:	fc 01       	movw	r30, r24
    1c48:	26 2f       	mov	r18, r22
    1c4a:	04 2f       	mov	r16, r20
  return lcd_put_string_xy_P(global_font_select, global_font_style, str, page, col);
    1c4c:	80 91 6b 01 	lds	r24, 0x016B
    1c50:	90 91 6c 01 	lds	r25, 0x016C
    1c54:	60 91 6a 01 	lds	r22, 0x016A
    1c58:	af 01       	movw	r20, r30
    1c5a:	0e 94 bf 0d 	call	0x1b7e	; 0x1b7e <lcd_put_string_xy_P>
  }  
    1c5e:	0f 91       	pop	r16
    1c60:	08 95       	ret

00001c62 <lcd_put_long>:

#if INCLUDE_INTEGER_OUTPUT == 1
/******************************************************************************
 * Outputs a 32bit signed integer on the display // Added by Olli S.
 */ 
uint16_t lcd_put_long  (int32_t integer) {
    1c62:	0f 93       	push	r16
    1c64:	1f 93       	push	r17
    1c66:	df 93       	push	r29
    1c68:	cf 93       	push	r28
    1c6a:	cd b7       	in	r28, 0x3d	; 61
    1c6c:	de b7       	in	r29, 0x3e	; 62
    1c6e:	2a 97       	sbiw	r28, 0x0a	; 10
    1c70:	0f b6       	in	r0, 0x3f	; 63
    1c72:	f8 94       	cli
    1c74:	de bf       	out	0x3e, r29	; 62
    1c76:	0f be       	out	0x3f, r0	; 63
    1c78:	cd bf       	out	0x3d, r28	; 61
  char buffer[10];
	ltoa(integer, buffer, 10);
    1c7a:	8e 01       	movw	r16, r28
    1c7c:	0f 5f       	subi	r16, 0xFF	; 255
    1c7e:	1f 4f       	sbci	r17, 0xFF	; 255
    1c80:	a8 01       	movw	r20, r16
    1c82:	2a e0       	ldi	r18, 0x0A	; 10
    1c84:	30 e0       	ldi	r19, 0x00	; 0
    1c86:	0e 94 d4 16 	call	0x2da8	; 0x2da8 <ltoa>
	return lcd_put_string(global_font_select, global_font_style, buffer);
    1c8a:	80 91 6b 01 	lds	r24, 0x016B
    1c8e:	90 91 6c 01 	lds	r25, 0x016C
    1c92:	60 91 6a 01 	lds	r22, 0x016A
    1c96:	a8 01       	movw	r20, r16
    1c98:	0e 94 63 0d 	call	0x1ac6	; 0x1ac6 <lcd_put_string>
  }
    1c9c:	2a 96       	adiw	r28, 0x0a	; 10
    1c9e:	0f b6       	in	r0, 0x3f	; 63
    1ca0:	f8 94       	cli
    1ca2:	de bf       	out	0x3e, r29	; 62
    1ca4:	0f be       	out	0x3f, r0	; 63
    1ca6:	cd bf       	out	0x3d, r28	; 61
    1ca8:	cf 91       	pop	r28
    1caa:	df 91       	pop	r29
    1cac:	1f 91       	pop	r17
    1cae:	0f 91       	pop	r16
    1cb0:	08 95       	ret

00001cb2 <lcd_put_int>:

  
/******************************************************************************
 * Outputs a 16bit signed integer on the display // Added by Olli S.
 */   
uint16_t lcd_put_int (int16_t integer) {
    1cb2:	0f 93       	push	r16
    1cb4:	1f 93       	push	r17
    1cb6:	df 93       	push	r29
    1cb8:	cf 93       	push	r28
    1cba:	cd b7       	in	r28, 0x3d	; 61
    1cbc:	de b7       	in	r29, 0x3e	; 62
    1cbe:	2a 97       	sbiw	r28, 0x0a	; 10
    1cc0:	0f b6       	in	r0, 0x3f	; 63
    1cc2:	f8 94       	cli
    1cc4:	de bf       	out	0x3e, r29	; 62
    1cc6:	0f be       	out	0x3f, r0	; 63
    1cc8:	cd bf       	out	0x3d, r28	; 61
  char buffer[10];
	itoa(integer, buffer, 10);
    1cca:	8e 01       	movw	r16, r28
    1ccc:	0f 5f       	subi	r16, 0xFF	; 255
    1cce:	1f 4f       	sbci	r17, 0xFF	; 255
    1cd0:	b8 01       	movw	r22, r16
    1cd2:	4a e0       	ldi	r20, 0x0A	; 10
    1cd4:	50 e0       	ldi	r21, 0x00	; 0
    1cd6:	0e 94 b3 16 	call	0x2d66	; 0x2d66 <itoa>
	return lcd_put_string(global_font_select, global_font_style, buffer);
    1cda:	80 91 6b 01 	lds	r24, 0x016B
    1cde:	90 91 6c 01 	lds	r25, 0x016C
    1ce2:	60 91 6a 01 	lds	r22, 0x016A
    1ce6:	a8 01       	movw	r20, r16
    1ce8:	0e 94 63 0d 	call	0x1ac6	; 0x1ac6 <lcd_put_string>
  }  
    1cec:	2a 96       	adiw	r28, 0x0a	; 10
    1cee:	0f b6       	in	r0, 0x3f	; 63
    1cf0:	f8 94       	cli
    1cf2:	de bf       	out	0x3e, r29	; 62
    1cf4:	0f be       	out	0x3f, r0	; 63
    1cf6:	cd bf       	out	0x3d, r28	; 61
    1cf8:	cf 91       	pop	r28
    1cfa:	df 91       	pop	r29
    1cfc:	1f 91       	pop	r17
    1cfe:	0f 91       	pop	r16
    1d00:	08 95       	ret

00001d02 <lcd_put_uint>:

  
/******************************************************************************
 * Outputs a 16bit unsigned integer on the display // Added by Olli S.
 */   
uint16_t lcd_put_uint  (uint16_t integer) {
    1d02:	0f 93       	push	r16
    1d04:	1f 93       	push	r17
    1d06:	df 93       	push	r29
    1d08:	cf 93       	push	r28
    1d0a:	cd b7       	in	r28, 0x3d	; 61
    1d0c:	de b7       	in	r29, 0x3e	; 62
    1d0e:	2a 97       	sbiw	r28, 0x0a	; 10
    1d10:	0f b6       	in	r0, 0x3f	; 63
    1d12:	f8 94       	cli
    1d14:	de bf       	out	0x3e, r29	; 62
    1d16:	0f be       	out	0x3f, r0	; 63
    1d18:	cd bf       	out	0x3d, r28	; 61
  char buffer[10];
	utoa(integer, buffer, 10);
    1d1a:	8e 01       	movw	r16, r28
    1d1c:	0f 5f       	subi	r16, 0xFF	; 255
    1d1e:	1f 4f       	sbci	r17, 0xFF	; 255
    1d20:	b8 01       	movw	r22, r16
    1d22:	4a e0       	ldi	r20, 0x0A	; 10
    1d24:	50 e0       	ldi	r21, 0x00	; 0
    1d26:	0e 94 08 17 	call	0x2e10	; 0x2e10 <utoa>
	return lcd_put_string(global_font_select, global_font_style, buffer);
    1d2a:	80 91 6b 01 	lds	r24, 0x016B
    1d2e:	90 91 6c 01 	lds	r25, 0x016C
    1d32:	60 91 6a 01 	lds	r22, 0x016A
    1d36:	a8 01       	movw	r20, r16
    1d38:	0e 94 63 0d 	call	0x1ac6	; 0x1ac6 <lcd_put_string>
  }  
    1d3c:	2a 96       	adiw	r28, 0x0a	; 10
    1d3e:	0f b6       	in	r0, 0x3f	; 63
    1d40:	f8 94       	cli
    1d42:	de bf       	out	0x3e, r29	; 62
    1d44:	0f be       	out	0x3f, r0	; 63
    1d46:	cd bf       	out	0x3d, r28	; 61
    1d48:	cf 91       	pop	r28
    1d4a:	df 91       	pop	r29
    1d4c:	1f 91       	pop	r17
    1d4e:	0f 91       	pop	r16
    1d50:	08 95       	ret

00001d52 <lcd_put_short>:
  
/******************************************************************************
 * Outputs a 8bit signed integer on the display
 */   
uint16_t lcd_put_short (int8_t integer) {
    1d52:	0f 93       	push	r16
    1d54:	1f 93       	push	r17
    1d56:	df 93       	push	r29
    1d58:	cf 93       	push	r28
    1d5a:	cd b7       	in	r28, 0x3d	; 61
    1d5c:	de b7       	in	r29, 0x3e	; 62
    1d5e:	2a 97       	sbiw	r28, 0x0a	; 10
    1d60:	0f b6       	in	r0, 0x3f	; 63
    1d62:	f8 94       	cli
    1d64:	de bf       	out	0x3e, r29	; 62
    1d66:	0f be       	out	0x3f, r0	; 63
    1d68:	cd bf       	out	0x3d, r28	; 61
  char buffer[10];
	itoa(integer, buffer, 10);
    1d6a:	99 27       	eor	r25, r25
    1d6c:	87 fd       	sbrc	r24, 7
    1d6e:	90 95       	com	r25
    1d70:	8e 01       	movw	r16, r28
    1d72:	0f 5f       	subi	r16, 0xFF	; 255
    1d74:	1f 4f       	sbci	r17, 0xFF	; 255
    1d76:	b8 01       	movw	r22, r16
    1d78:	4a e0       	ldi	r20, 0x0A	; 10
    1d7a:	50 e0       	ldi	r21, 0x00	; 0
    1d7c:	0e 94 b3 16 	call	0x2d66	; 0x2d66 <itoa>
	return lcd_put_string(global_font_select, global_font_style, buffer);
    1d80:	80 91 6b 01 	lds	r24, 0x016B
    1d84:	90 91 6c 01 	lds	r25, 0x016C
    1d88:	60 91 6a 01 	lds	r22, 0x016A
    1d8c:	a8 01       	movw	r20, r16
    1d8e:	0e 94 63 0d 	call	0x1ac6	; 0x1ac6 <lcd_put_string>
  }    
    1d92:	2a 96       	adiw	r28, 0x0a	; 10
    1d94:	0f b6       	in	r0, 0x3f	; 63
    1d96:	f8 94       	cli
    1d98:	de bf       	out	0x3e, r29	; 62
    1d9a:	0f be       	out	0x3f, r0	; 63
    1d9c:	cd bf       	out	0x3d, r28	; 61
    1d9e:	cf 91       	pop	r28
    1da0:	df 91       	pop	r29
    1da2:	1f 91       	pop	r17
    1da4:	0f 91       	pop	r16
    1da6:	08 95       	ret

00001da8 <i2cSetBitrate>:
void i2cSetBitrate(uint16_t bitratekHz)
{
	uint8_t bitrate_div;
	// set i2c bitrate
	// Set Prescaler to one --> TWPS = 1
	TWSR =((0<<TWPS0)|(0<<TWPS1));
    1da8:	11 b8       	out	0x01, r1	; 1
	//calculate bitrate division	
	bitrate_div = (((float)F_CPU/1000.0)/(float)bitratekHz);
    1daa:	bc 01       	movw	r22, r24
    1dac:	80 e0       	ldi	r24, 0x00	; 0
    1dae:	90 e0       	ldi	r25, 0x00	; 0
    1db0:	0e 94 aa 13 	call	0x2754	; 0x2754 <__floatunsisf>
    1db4:	9b 01       	movw	r18, r22
    1db6:	ac 01       	movw	r20, r24
    1db8:	60 e0       	ldi	r22, 0x00	; 0
    1dba:	70 e0       	ldi	r23, 0x00	; 0
    1dbc:	8a ef       	ldi	r24, 0xFA	; 250
    1dbe:	95 e4       	ldi	r25, 0x45	; 69
    1dc0:	0e 94 1a 12 	call	0x2434	; 0x2434 <__divsf3>
    1dc4:	0e 94 4c 0f 	call	0x1e98	; 0x1e98 <__fixunssfsi>
	if(bitrate_div >= 16){
    1dc8:	60 31       	cpi	r22, 0x10	; 16
    1dca:	88 f0       	brcs	.+34     	; 0x1dee <i2cSetBitrate+0x46>
		bitrate_div = (float)(bitrate_div-16)/8;
    1dcc:	70 e0       	ldi	r23, 0x00	; 0
    1dce:	60 51       	subi	r22, 0x10	; 16
    1dd0:	70 40       	sbci	r23, 0x00	; 0
    1dd2:	88 27       	eor	r24, r24
    1dd4:	77 fd       	sbrc	r23, 7
    1dd6:	80 95       	com	r24
    1dd8:	98 2f       	mov	r25, r24
    1dda:	0e 94 f8 12 	call	0x25f0	; 0x25f0 <__floatsisf>
    1dde:	20 e0       	ldi	r18, 0x00	; 0
    1de0:	30 e0       	ldi	r19, 0x00	; 0
    1de2:	40 e0       	ldi	r20, 0x00	; 0
    1de4:	5e e3       	ldi	r21, 0x3E	; 62
    1de6:	0e 94 20 11 	call	0x2240	; 0x2240 <__mulsf3>
    1dea:	0e 94 4c 0f 	call	0x1e98	; 0x1e98 <__fixunssfsi>
	}
	//printf("DIV: %d \n",bitrate_div);
	TWBR=(uint8_t)bitrate_div;
    1dee:	60 b9       	out	0x00, r22	; 0
	//TWBR=0; -> max speed
}
    1df0:	08 95       	ret

00001df2 <i2cSendStart>:
// 
//----------------------------------------
void i2cSendStart(void)
{
	// send start condition
	TWCR = (1<<TWINT)|(1<<TWSTA)|(1<<TWEN);
    1df2:	84 ea       	ldi	r24, 0xA4	; 164
    1df4:	86 bf       	out	0x36, r24	; 54
}
    1df6:	08 95       	ret

00001df8 <i2cSendStop>:
{
	
	uint8_t i = 0;		//time out variable
	uint8_t error_code=0;
	// transmit stop condition
    TWCR = (1<<TWINT)|(1<<TWEN)|(1<<TWSTO);	
    1df8:	84 e9       	ldi	r24, 0x94	; 148
    1dfa:	86 bf       	out	0x36, r24	; 54

	// wait until stop condition is executed and bus released
    while ((TWCR & (1<<TWSTO)) && (i < 90)){
    1dfc:	06 b6       	in	r0, 0x36	; 54
    1dfe:	04 fe       	sbrs	r0, 4
    1e00:	16 c0       	rjmp	.+44     	; 0x1e2e <i2cSendStop+0x36>
    1e02:	80 e0       	ldi	r24, 0x00	; 0
    1e04:	02 c0       	rjmp	.+4      	; 0x1e0a <i2cSendStop+0x12>
    1e06:	8a 35       	cpi	r24, 0x5A	; 90
    1e08:	61 f0       	breq	.+24     	; 0x1e22 <i2cSendStop+0x2a>
	#else
		//round up by default
		__ticks_dc = (uint32_t)(ceil(fabs(__tmp)));
	#endif

	__builtin_avr_delay_cycles(__ticks_dc);
    1e0a:	92 e0       	ldi	r25, 0x02	; 2
    1e0c:	9a 95       	dec	r25
    1e0e:	f1 f7       	brne	.-4      	; 0x1e0c <i2cSendStop+0x14>
    1e10:	00 c0       	rjmp	.+0      	; 0x1e12 <i2cSendStop+0x1a>
		_delay_us(1);
		i++;
    1e12:	8f 5f       	subi	r24, 0xFF	; 255
	uint8_t error_code=0;
	// transmit stop condition
    TWCR = (1<<TWINT)|(1<<TWEN)|(1<<TWSTO);	

	// wait until stop condition is executed and bus released
    while ((TWCR & (1<<TWSTO)) && (i < 90)){
    1e14:	06 b6       	in	r0, 0x36	; 54
    1e16:	04 fc       	sbrc	r0, 4
    1e18:	f6 cf       	rjmp	.-20     	; 0x1e06 <i2cSendStop+0xe>
		_delay_us(1);
		i++;
	}
	if (i>89){
    1e1a:	8a 35       	cpi	r24, 0x5A	; 90
    1e1c:	10 f4       	brcc	.+4      	; 0x1e22 <i2cSendStop+0x2a>
//----------------------------------------
uint8_t i2cSendStop(void)
{
	
	uint8_t i = 0;		//time out variable
	uint8_t error_code=0;
    1e1e:	80 e0       	ldi	r24, 0x00	; 0
		_delay_us(1);
		error_code=100;

	}
	return error_code;
}
    1e20:	08 95       	ret
    1e22:	82 e0       	ldi	r24, 0x02	; 2
    1e24:	8a 95       	dec	r24
    1e26:	f1 f7       	brne	.-4      	; 0x1e24 <i2cSendStop+0x2c>
    1e28:	00 c0       	rjmp	.+0      	; 0x1e2a <i2cSendStop+0x32>
		_delay_us(1);
		i++;
	}
	if (i>89){
		_delay_us(1);
		error_code=100;
    1e2a:	84 e6       	ldi	r24, 0x64	; 100
    1e2c:	08 95       	ret
//----------------------------------------
uint8_t i2cSendStop(void)
{
	
	uint8_t i = 0;		//time out variable
	uint8_t error_code=0;
    1e2e:	80 e0       	ldi	r24, 0x00	; 0
    1e30:	08 95       	ret

00001e32 <i2cSendByte>:
// 
//----------------------------------------
void i2cSendByte(unsigned char data)
{
	// save data to the TWDR
	TWDR = data;
    1e32:	83 b9       	out	0x03, r24	; 3
	// begin send
	TWCR = (1<<TWINT)|(1<<TWEN);
    1e34:	84 e8       	ldi	r24, 0x84	; 132
    1e36:	86 bf       	out	0x36, r24	; 54
}
    1e38:	08 95       	ret

00001e3a <i2cReceiveByteACK>:
// 
//----------------------------------------
void i2cReceiveByteACK(void)
{

	TWCR = (1<<TWINT)|(1<<TWEN)|(1<<TWEA);
    1e3a:	84 ec       	ldi	r24, 0xC4	; 196
    1e3c:	86 bf       	out	0x36, r24	; 54
}
    1e3e:	08 95       	ret

00001e40 <i2cReceiveByteNACK>:
// 
//----------------------------------------
void i2cReceiveByteNACK(void)
{

	TWCR = (1<<TWINT)|(1<<TWEN);
    1e40:	84 e8       	ldi	r24, 0x84	; 132
    1e42:	86 bf       	out	0x36, r24	; 54
}
    1e44:	08 95       	ret

00001e46 <i2cWaitForComplete>:
{
	uint8_t i = 0;		//time out variable
	uint8_t error_code=0;	

	// wait for i2c interface to complete operation
    while ((!(TWCR & (1<<TWINT))) && (i < 90)){
    1e46:	06 b6       	in	r0, 0x36	; 54
    1e48:	07 fc       	sbrc	r0, 7
    1e4a:	16 c0       	rjmp	.+44     	; 0x1e78 <i2cWaitForComplete+0x32>
    1e4c:	80 e0       	ldi	r24, 0x00	; 0
    1e4e:	02 c0       	rjmp	.+4      	; 0x1e54 <i2cWaitForComplete+0xe>
    1e50:	8a 35       	cpi	r24, 0x5A	; 90
    1e52:	61 f0       	breq	.+24     	; 0x1e6c <i2cWaitForComplete+0x26>
    1e54:	92 e0       	ldi	r25, 0x02	; 2
    1e56:	9a 95       	dec	r25
    1e58:	f1 f7       	brne	.-4      	; 0x1e56 <i2cWaitForComplete+0x10>
    1e5a:	00 c0       	rjmp	.+0      	; 0x1e5c <i2cWaitForComplete+0x16>
		_delay_us(1);
		i++;
    1e5c:	8f 5f       	subi	r24, 0xFF	; 255
{
	uint8_t i = 0;		//time out variable
	uint8_t error_code=0;	

	// wait for i2c interface to complete operation
    while ((!(TWCR & (1<<TWINT))) && (i < 90)){
    1e5e:	06 b6       	in	r0, 0x36	; 54
    1e60:	07 fe       	sbrs	r0, 7
    1e62:	f6 cf       	rjmp	.-20     	; 0x1e50 <i2cWaitForComplete+0xa>
		_delay_us(1);
		i++;
	}
	if (i>89){
    1e64:	8a 35       	cpi	r24, 0x5A	; 90
    1e66:	10 f4       	brcc	.+4      	; 0x1e6c <i2cWaitForComplete+0x26>
// 
//----------------------------------------
uint8_t i2cWaitForComplete(void)
{
	uint8_t i = 0;		//time out variable
	uint8_t error_code=0;	
    1e68:	80 e0       	ldi	r24, 0x00	; 0
		_delay_us(1);
		error_code=100;

	}
	return error_code;
}
    1e6a:	08 95       	ret
    1e6c:	82 e0       	ldi	r24, 0x02	; 2
    1e6e:	8a 95       	dec	r24
    1e70:	f1 f7       	brne	.-4      	; 0x1e6e <i2cWaitForComplete+0x28>
    1e72:	00 c0       	rjmp	.+0      	; 0x1e74 <i2cWaitForComplete+0x2e>
		_delay_us(1);
		i++;
	}
	if (i>89){
		_delay_us(1);
		error_code=100;
    1e74:	84 e6       	ldi	r24, 0x64	; 100
    1e76:	08 95       	ret
// 
//----------------------------------------
uint8_t i2cWaitForComplete(void)
{
	uint8_t i = 0;		//time out variable
	uint8_t error_code=0;	
    1e78:	80 e0       	ldi	r24, 0x00	; 0
    1e7a:	08 95       	ret

00001e7c <i2cGetReceivedByte>:
// 
//----------------------------------------
uint8_t i2cGetReceivedByte(void)
{
	// retieve received data byte from i2c TWDR
	return (uint8_t)TWDR;
    1e7c:	83 b1       	in	r24, 0x03	; 3
}
    1e7e:	08 95       	ret

00001e80 <checki2cReturnCode>:
//----------------------------------------
uint8_t checki2cReturnCode(uint8_t expected_return_code){
	uint8_t error_code=0;
	uint8_t i=0;
	//while (error_code!=0 && i!=0 && i<3){
		if ((TWSR & 0xF8) != expected_return_code){
    1e80:	21 b1       	in	r18, 0x01	; 1
    1e82:	30 e0       	ldi	r19, 0x00	; 0
    1e84:	28 7f       	andi	r18, 0xF8	; 248
    1e86:	30 70       	andi	r19, 0x00	; 0
    1e88:	90 e0       	ldi	r25, 0x00	; 0
    1e8a:	28 17       	cp	r18, r24
    1e8c:	39 07       	cpc	r19, r25
    1e8e:	11 f0       	breq	.+4      	; 0x1e94 <checki2cReturnCode+0x14>
			error_code=10;
    1e90:	8a e0       	ldi	r24, 0x0A	; 10
		}
	i++;
//	}
	return error_code;
    1e92:	08 95       	ret
}
//----------------------------------------
// 
//----------------------------------------
uint8_t checki2cReturnCode(uint8_t expected_return_code){
	uint8_t error_code=0;
    1e94:	80 e0       	ldi	r24, 0x00	; 0
    1e96:	08 95       	ret

00001e98 <__fixunssfsi>:
    1e98:	ef 92       	push	r14
    1e9a:	ff 92       	push	r15
    1e9c:	0f 93       	push	r16
    1e9e:	1f 93       	push	r17
    1ea0:	7b 01       	movw	r14, r22
    1ea2:	8c 01       	movw	r16, r24
    1ea4:	20 e0       	ldi	r18, 0x00	; 0
    1ea6:	30 e0       	ldi	r19, 0x00	; 0
    1ea8:	40 e0       	ldi	r20, 0x00	; 0
    1eaa:	5f e4       	ldi	r21, 0x4F	; 79
    1eac:	0e 94 c8 12 	call	0x2590	; 0x2590 <__gesf2>
    1eb0:	87 fd       	sbrc	r24, 7
    1eb2:	11 c0       	rjmp	.+34     	; 0x1ed6 <__fixunssfsi+0x3e>
    1eb4:	c8 01       	movw	r24, r16
    1eb6:	b7 01       	movw	r22, r14
    1eb8:	20 e0       	ldi	r18, 0x00	; 0
    1eba:	30 e0       	ldi	r19, 0x00	; 0
    1ebc:	40 e0       	ldi	r20, 0x00	; 0
    1ebe:	5f e4       	ldi	r21, 0x4F	; 79
    1ec0:	0e 94 ef 10 	call	0x21de	; 0x21de <__subsf3>
    1ec4:	0e 94 58 13 	call	0x26b0	; 0x26b0 <__fixsfsi>
    1ec8:	9b 01       	movw	r18, r22
    1eca:	ac 01       	movw	r20, r24
    1ecc:	20 50       	subi	r18, 0x00	; 0
    1ece:	30 40       	sbci	r19, 0x00	; 0
    1ed0:	40 40       	sbci	r20, 0x00	; 0
    1ed2:	50 48       	sbci	r21, 0x80	; 128
    1ed4:	06 c0       	rjmp	.+12     	; 0x1ee2 <__fixunssfsi+0x4a>
    1ed6:	c8 01       	movw	r24, r16
    1ed8:	b7 01       	movw	r22, r14
    1eda:	0e 94 58 13 	call	0x26b0	; 0x26b0 <__fixsfsi>
    1ede:	9b 01       	movw	r18, r22
    1ee0:	ac 01       	movw	r20, r24
    1ee2:	b9 01       	movw	r22, r18
    1ee4:	ca 01       	movw	r24, r20
    1ee6:	1f 91       	pop	r17
    1ee8:	0f 91       	pop	r16
    1eea:	ff 90       	pop	r15
    1eec:	ef 90       	pop	r14
    1eee:	08 95       	ret

00001ef0 <_fpadd_parts>:
    1ef0:	a0 e0       	ldi	r26, 0x00	; 0
    1ef2:	b0 e0       	ldi	r27, 0x00	; 0
    1ef4:	ee e7       	ldi	r30, 0x7E	; 126
    1ef6:	ff e0       	ldi	r31, 0x0F	; 15
    1ef8:	0c 94 80 16 	jmp	0x2d00	; 0x2d00 <__prologue_saves__+0x8>
    1efc:	fc 01       	movw	r30, r24
    1efe:	ea 01       	movw	r28, r20
    1f00:	80 81       	ld	r24, Z
    1f02:	82 30       	cpi	r24, 0x02	; 2
    1f04:	08 f4       	brcc	.+2      	; 0x1f08 <_fpadd_parts+0x18>
    1f06:	38 c1       	rjmp	.+624    	; 0x2178 <_fpadd_parts+0x288>
    1f08:	db 01       	movw	r26, r22
    1f0a:	9c 91       	ld	r25, X
    1f0c:	92 30       	cpi	r25, 0x02	; 2
    1f0e:	08 f4       	brcc	.+2      	; 0x1f12 <_fpadd_parts+0x22>
    1f10:	30 c1       	rjmp	.+608    	; 0x2172 <_fpadd_parts+0x282>
    1f12:	84 30       	cpi	r24, 0x04	; 4
    1f14:	59 f4       	brne	.+22     	; 0x1f2c <_fpadd_parts+0x3c>
    1f16:	94 30       	cpi	r25, 0x04	; 4
    1f18:	09 f0       	breq	.+2      	; 0x1f1c <_fpadd_parts+0x2c>
    1f1a:	2e c1       	rjmp	.+604    	; 0x2178 <_fpadd_parts+0x288>
    1f1c:	91 81       	ldd	r25, Z+1	; 0x01
    1f1e:	11 96       	adiw	r26, 0x01	; 1
    1f20:	8c 91       	ld	r24, X
    1f22:	11 97       	sbiw	r26, 0x01	; 1
    1f24:	98 17       	cp	r25, r24
    1f26:	09 f0       	breq	.+2      	; 0x1f2a <_fpadd_parts+0x3a>
    1f28:	21 c1       	rjmp	.+578    	; 0x216c <_fpadd_parts+0x27c>
    1f2a:	26 c1       	rjmp	.+588    	; 0x2178 <_fpadd_parts+0x288>
    1f2c:	94 30       	cpi	r25, 0x04	; 4
    1f2e:	09 f4       	brne	.+2      	; 0x1f32 <_fpadd_parts+0x42>
    1f30:	20 c1       	rjmp	.+576    	; 0x2172 <_fpadd_parts+0x282>
    1f32:	92 30       	cpi	r25, 0x02	; 2
    1f34:	b1 f4       	brne	.+44     	; 0x1f62 <_fpadd_parts+0x72>
    1f36:	82 30       	cpi	r24, 0x02	; 2
    1f38:	09 f0       	breq	.+2      	; 0x1f3c <_fpadd_parts+0x4c>
    1f3a:	1e c1       	rjmp	.+572    	; 0x2178 <_fpadd_parts+0x288>
    1f3c:	ca 01       	movw	r24, r20
    1f3e:	af 01       	movw	r20, r30
    1f40:	28 e0       	ldi	r18, 0x08	; 8
    1f42:	da 01       	movw	r26, r20
    1f44:	0d 90       	ld	r0, X+
    1f46:	ad 01       	movw	r20, r26
    1f48:	dc 01       	movw	r26, r24
    1f4a:	0d 92       	st	X+, r0
    1f4c:	cd 01       	movw	r24, r26
    1f4e:	21 50       	subi	r18, 0x01	; 1
    1f50:	c1 f7       	brne	.-16     	; 0x1f42 <_fpadd_parts+0x52>
    1f52:	db 01       	movw	r26, r22
    1f54:	11 96       	adiw	r26, 0x01	; 1
    1f56:	8c 91       	ld	r24, X
    1f58:	11 97       	sbiw	r26, 0x01	; 1
    1f5a:	91 81       	ldd	r25, Z+1	; 0x01
    1f5c:	89 23       	and	r24, r25
    1f5e:	89 83       	std	Y+1, r24	; 0x01
    1f60:	0a c1       	rjmp	.+532    	; 0x2176 <_fpadd_parts+0x286>
    1f62:	82 30       	cpi	r24, 0x02	; 2
    1f64:	09 f4       	brne	.+2      	; 0x1f68 <_fpadd_parts+0x78>
    1f66:	05 c1       	rjmp	.+522    	; 0x2172 <_fpadd_parts+0x282>
    1f68:	c2 80       	ldd	r12, Z+2	; 0x02
    1f6a:	d3 80       	ldd	r13, Z+3	; 0x03
    1f6c:	db 01       	movw	r26, r22
    1f6e:	12 96       	adiw	r26, 0x02	; 2
    1f70:	6d 90       	ld	r6, X+
    1f72:	7c 90       	ld	r7, X
    1f74:	13 97       	sbiw	r26, 0x03	; 3
    1f76:	24 81       	ldd	r18, Z+4	; 0x04
    1f78:	35 81       	ldd	r19, Z+5	; 0x05
    1f7a:	46 81       	ldd	r20, Z+6	; 0x06
    1f7c:	57 81       	ldd	r21, Z+7	; 0x07
    1f7e:	14 96       	adiw	r26, 0x04	; 4
    1f80:	ed 90       	ld	r14, X+
    1f82:	fd 90       	ld	r15, X+
    1f84:	0d 91       	ld	r16, X+
    1f86:	1c 91       	ld	r17, X
    1f88:	17 97       	sbiw	r26, 0x07	; 7
    1f8a:	c6 01       	movw	r24, r12
    1f8c:	86 19       	sub	r24, r6
    1f8e:	97 09       	sbc	r25, r7
    1f90:	5c 01       	movw	r10, r24
    1f92:	97 ff       	sbrs	r25, 7
    1f94:	04 c0       	rjmp	.+8      	; 0x1f9e <_fpadd_parts+0xae>
    1f96:	aa 24       	eor	r10, r10
    1f98:	bb 24       	eor	r11, r11
    1f9a:	a8 1a       	sub	r10, r24
    1f9c:	b9 0a       	sbc	r11, r25
    1f9e:	b0 e2       	ldi	r27, 0x20	; 32
    1fa0:	ab 16       	cp	r10, r27
    1fa2:	b1 04       	cpc	r11, r1
    1fa4:	0c f0       	brlt	.+2      	; 0x1fa8 <_fpadd_parts+0xb8>
    1fa6:	61 c0       	rjmp	.+194    	; 0x206a <_fpadd_parts+0x17a>
    1fa8:	18 16       	cp	r1, r24
    1faa:	19 06       	cpc	r1, r25
    1fac:	6c f5       	brge	.+90     	; 0x2008 <_fpadd_parts+0x118>
    1fae:	37 01       	movw	r6, r14
    1fb0:	48 01       	movw	r8, r16
    1fb2:	0a 2c       	mov	r0, r10
    1fb4:	04 c0       	rjmp	.+8      	; 0x1fbe <_fpadd_parts+0xce>
    1fb6:	96 94       	lsr	r9
    1fb8:	87 94       	ror	r8
    1fba:	77 94       	ror	r7
    1fbc:	67 94       	ror	r6
    1fbe:	0a 94       	dec	r0
    1fc0:	d2 f7       	brpl	.-12     	; 0x1fb6 <_fpadd_parts+0xc6>
    1fc2:	81 e0       	ldi	r24, 0x01	; 1
    1fc4:	90 e0       	ldi	r25, 0x00	; 0
    1fc6:	a0 e0       	ldi	r26, 0x00	; 0
    1fc8:	b0 e0       	ldi	r27, 0x00	; 0
    1fca:	0a 2c       	mov	r0, r10
    1fcc:	04 c0       	rjmp	.+8      	; 0x1fd6 <_fpadd_parts+0xe6>
    1fce:	88 0f       	add	r24, r24
    1fd0:	99 1f       	adc	r25, r25
    1fd2:	aa 1f       	adc	r26, r26
    1fd4:	bb 1f       	adc	r27, r27
    1fd6:	0a 94       	dec	r0
    1fd8:	d2 f7       	brpl	.-12     	; 0x1fce <_fpadd_parts+0xde>
    1fda:	01 97       	sbiw	r24, 0x01	; 1
    1fdc:	a1 09       	sbc	r26, r1
    1fde:	b1 09       	sbc	r27, r1
    1fe0:	8e 21       	and	r24, r14
    1fe2:	9f 21       	and	r25, r15
    1fe4:	a0 23       	and	r26, r16
    1fe6:	b1 23       	and	r27, r17
    1fe8:	ee 24       	eor	r14, r14
    1fea:	ff 24       	eor	r15, r15
    1fec:	87 01       	movw	r16, r14
    1fee:	e3 94       	inc	r14
    1ff0:	00 97       	sbiw	r24, 0x00	; 0
    1ff2:	a1 05       	cpc	r26, r1
    1ff4:	b1 05       	cpc	r27, r1
    1ff6:	19 f4       	brne	.+6      	; 0x1ffe <_fpadd_parts+0x10e>
    1ff8:	ee 24       	eor	r14, r14
    1ffa:	ff 24       	eor	r15, r15
    1ffc:	87 01       	movw	r16, r14
    1ffe:	e6 28       	or	r14, r6
    2000:	f7 28       	or	r15, r7
    2002:	08 29       	or	r16, r8
    2004:	19 29       	or	r17, r9
    2006:	3c c0       	rjmp	.+120    	; 0x2080 <_fpadd_parts+0x190>
    2008:	00 97       	sbiw	r24, 0x00	; 0
    200a:	d1 f1       	breq	.+116    	; 0x2080 <_fpadd_parts+0x190>
    200c:	ca 0c       	add	r12, r10
    200e:	db 1c       	adc	r13, r11
    2010:	39 01       	movw	r6, r18
    2012:	4a 01       	movw	r8, r20
    2014:	0a 2c       	mov	r0, r10
    2016:	04 c0       	rjmp	.+8      	; 0x2020 <_fpadd_parts+0x130>
    2018:	96 94       	lsr	r9
    201a:	87 94       	ror	r8
    201c:	77 94       	ror	r7
    201e:	67 94       	ror	r6
    2020:	0a 94       	dec	r0
    2022:	d2 f7       	brpl	.-12     	; 0x2018 <_fpadd_parts+0x128>
    2024:	81 e0       	ldi	r24, 0x01	; 1
    2026:	90 e0       	ldi	r25, 0x00	; 0
    2028:	a0 e0       	ldi	r26, 0x00	; 0
    202a:	b0 e0       	ldi	r27, 0x00	; 0
    202c:	0a 2c       	mov	r0, r10
    202e:	04 c0       	rjmp	.+8      	; 0x2038 <_fpadd_parts+0x148>
    2030:	88 0f       	add	r24, r24
    2032:	99 1f       	adc	r25, r25
    2034:	aa 1f       	adc	r26, r26
    2036:	bb 1f       	adc	r27, r27
    2038:	0a 94       	dec	r0
    203a:	d2 f7       	brpl	.-12     	; 0x2030 <_fpadd_parts+0x140>
    203c:	01 97       	sbiw	r24, 0x01	; 1
    203e:	a1 09       	sbc	r26, r1
    2040:	b1 09       	sbc	r27, r1
    2042:	82 23       	and	r24, r18
    2044:	93 23       	and	r25, r19
    2046:	a4 23       	and	r26, r20
    2048:	b5 23       	and	r27, r21
    204a:	21 e0       	ldi	r18, 0x01	; 1
    204c:	30 e0       	ldi	r19, 0x00	; 0
    204e:	40 e0       	ldi	r20, 0x00	; 0
    2050:	50 e0       	ldi	r21, 0x00	; 0
    2052:	00 97       	sbiw	r24, 0x00	; 0
    2054:	a1 05       	cpc	r26, r1
    2056:	b1 05       	cpc	r27, r1
    2058:	19 f4       	brne	.+6      	; 0x2060 <_fpadd_parts+0x170>
    205a:	20 e0       	ldi	r18, 0x00	; 0
    205c:	30 e0       	ldi	r19, 0x00	; 0
    205e:	a9 01       	movw	r20, r18
    2060:	26 29       	or	r18, r6
    2062:	37 29       	or	r19, r7
    2064:	48 29       	or	r20, r8
    2066:	59 29       	or	r21, r9
    2068:	0b c0       	rjmp	.+22     	; 0x2080 <_fpadd_parts+0x190>
    206a:	6c 14       	cp	r6, r12
    206c:	7d 04       	cpc	r7, r13
    206e:	24 f4       	brge	.+8      	; 0x2078 <_fpadd_parts+0x188>
    2070:	ee 24       	eor	r14, r14
    2072:	ff 24       	eor	r15, r15
    2074:	87 01       	movw	r16, r14
    2076:	04 c0       	rjmp	.+8      	; 0x2080 <_fpadd_parts+0x190>
    2078:	63 01       	movw	r12, r6
    207a:	20 e0       	ldi	r18, 0x00	; 0
    207c:	30 e0       	ldi	r19, 0x00	; 0
    207e:	a9 01       	movw	r20, r18
    2080:	81 81       	ldd	r24, Z+1	; 0x01
    2082:	fb 01       	movw	r30, r22
    2084:	91 81       	ldd	r25, Z+1	; 0x01
    2086:	89 17       	cp	r24, r25
    2088:	09 f4       	brne	.+2      	; 0x208c <_fpadd_parts+0x19c>
    208a:	45 c0       	rjmp	.+138    	; 0x2116 <_fpadd_parts+0x226>
    208c:	88 23       	and	r24, r24
    208e:	49 f0       	breq	.+18     	; 0x20a2 <_fpadd_parts+0x1b2>
    2090:	d8 01       	movw	r26, r16
    2092:	c7 01       	movw	r24, r14
    2094:	82 1b       	sub	r24, r18
    2096:	93 0b       	sbc	r25, r19
    2098:	a4 0b       	sbc	r26, r20
    209a:	b5 0b       	sbc	r27, r21
    209c:	9c 01       	movw	r18, r24
    209e:	ad 01       	movw	r20, r26
    20a0:	04 c0       	rjmp	.+8      	; 0x20aa <_fpadd_parts+0x1ba>
    20a2:	2e 19       	sub	r18, r14
    20a4:	3f 09       	sbc	r19, r15
    20a6:	40 0b       	sbc	r20, r16
    20a8:	51 0b       	sbc	r21, r17
    20aa:	57 fd       	sbrc	r21, 7
    20ac:	04 c0       	rjmp	.+8      	; 0x20b6 <_fpadd_parts+0x1c6>
    20ae:	19 82       	std	Y+1, r1	; 0x01
    20b0:	db 82       	std	Y+3, r13	; 0x03
    20b2:	ca 82       	std	Y+2, r12	; 0x02
    20b4:	0b c0       	rjmp	.+22     	; 0x20cc <_fpadd_parts+0x1dc>
    20b6:	81 e0       	ldi	r24, 0x01	; 1
    20b8:	89 83       	std	Y+1, r24	; 0x01
    20ba:	db 82       	std	Y+3, r13	; 0x03
    20bc:	ca 82       	std	Y+2, r12	; 0x02
    20be:	50 95       	com	r21
    20c0:	40 95       	com	r20
    20c2:	30 95       	com	r19
    20c4:	21 95       	neg	r18
    20c6:	3f 4f       	sbci	r19, 0xFF	; 255
    20c8:	4f 4f       	sbci	r20, 0xFF	; 255
    20ca:	5f 4f       	sbci	r21, 0xFF	; 255
    20cc:	2c 83       	std	Y+4, r18	; 0x04
    20ce:	3d 83       	std	Y+5, r19	; 0x05
    20d0:	4e 83       	std	Y+6, r20	; 0x06
    20d2:	5f 83       	std	Y+7, r21	; 0x07
    20d4:	0d c0       	rjmp	.+26     	; 0x20f0 <_fpadd_parts+0x200>
    20d6:	88 0f       	add	r24, r24
    20d8:	99 1f       	adc	r25, r25
    20da:	aa 1f       	adc	r26, r26
    20dc:	bb 1f       	adc	r27, r27
    20de:	8c 83       	std	Y+4, r24	; 0x04
    20e0:	9d 83       	std	Y+5, r25	; 0x05
    20e2:	ae 83       	std	Y+6, r26	; 0x06
    20e4:	bf 83       	std	Y+7, r27	; 0x07
    20e6:	8a 81       	ldd	r24, Y+2	; 0x02
    20e8:	9b 81       	ldd	r25, Y+3	; 0x03
    20ea:	01 97       	sbiw	r24, 0x01	; 1
    20ec:	9b 83       	std	Y+3, r25	; 0x03
    20ee:	8a 83       	std	Y+2, r24	; 0x02
    20f0:	8c 81       	ldd	r24, Y+4	; 0x04
    20f2:	9d 81       	ldd	r25, Y+5	; 0x05
    20f4:	ae 81       	ldd	r26, Y+6	; 0x06
    20f6:	bf 81       	ldd	r27, Y+7	; 0x07
    20f8:	9c 01       	movw	r18, r24
    20fa:	ad 01       	movw	r20, r26
    20fc:	21 50       	subi	r18, 0x01	; 1
    20fe:	30 40       	sbci	r19, 0x00	; 0
    2100:	40 40       	sbci	r20, 0x00	; 0
    2102:	50 40       	sbci	r21, 0x00	; 0
    2104:	2f 3f       	cpi	r18, 0xFF	; 255
    2106:	ef ef       	ldi	r30, 0xFF	; 255
    2108:	3e 07       	cpc	r19, r30
    210a:	ef ef       	ldi	r30, 0xFF	; 255
    210c:	4e 07       	cpc	r20, r30
    210e:	ef e3       	ldi	r30, 0x3F	; 63
    2110:	5e 07       	cpc	r21, r30
    2112:	08 f3       	brcs	.-62     	; 0x20d6 <_fpadd_parts+0x1e6>
    2114:	0b c0       	rjmp	.+22     	; 0x212c <_fpadd_parts+0x23c>
    2116:	89 83       	std	Y+1, r24	; 0x01
    2118:	db 82       	std	Y+3, r13	; 0x03
    211a:	ca 82       	std	Y+2, r12	; 0x02
    211c:	2e 0d       	add	r18, r14
    211e:	3f 1d       	adc	r19, r15
    2120:	40 1f       	adc	r20, r16
    2122:	51 1f       	adc	r21, r17
    2124:	2c 83       	std	Y+4, r18	; 0x04
    2126:	3d 83       	std	Y+5, r19	; 0x05
    2128:	4e 83       	std	Y+6, r20	; 0x06
    212a:	5f 83       	std	Y+7, r21	; 0x07
    212c:	83 e0       	ldi	r24, 0x03	; 3
    212e:	88 83       	st	Y, r24
    2130:	2c 81       	ldd	r18, Y+4	; 0x04
    2132:	3d 81       	ldd	r19, Y+5	; 0x05
    2134:	4e 81       	ldd	r20, Y+6	; 0x06
    2136:	5f 81       	ldd	r21, Y+7	; 0x07
    2138:	57 ff       	sbrs	r21, 7
    213a:	1d c0       	rjmp	.+58     	; 0x2176 <_fpadd_parts+0x286>
    213c:	da 01       	movw	r26, r20
    213e:	c9 01       	movw	r24, r18
    2140:	81 70       	andi	r24, 0x01	; 1
    2142:	90 70       	andi	r25, 0x00	; 0
    2144:	a0 70       	andi	r26, 0x00	; 0
    2146:	b0 70       	andi	r27, 0x00	; 0
    2148:	56 95       	lsr	r21
    214a:	47 95       	ror	r20
    214c:	37 95       	ror	r19
    214e:	27 95       	ror	r18
    2150:	82 2b       	or	r24, r18
    2152:	93 2b       	or	r25, r19
    2154:	a4 2b       	or	r26, r20
    2156:	b5 2b       	or	r27, r21
    2158:	8c 83       	std	Y+4, r24	; 0x04
    215a:	9d 83       	std	Y+5, r25	; 0x05
    215c:	ae 83       	std	Y+6, r26	; 0x06
    215e:	bf 83       	std	Y+7, r27	; 0x07
    2160:	8a 81       	ldd	r24, Y+2	; 0x02
    2162:	9b 81       	ldd	r25, Y+3	; 0x03
    2164:	01 96       	adiw	r24, 0x01	; 1
    2166:	9b 83       	std	Y+3, r25	; 0x03
    2168:	8a 83       	std	Y+2, r24	; 0x02
    216a:	05 c0       	rjmp	.+10     	; 0x2176 <_fpadd_parts+0x286>
    216c:	e0 e6       	ldi	r30, 0x60	; 96
    216e:	f0 e0       	ldi	r31, 0x00	; 0
    2170:	03 c0       	rjmp	.+6      	; 0x2178 <_fpadd_parts+0x288>
    2172:	fb 01       	movw	r30, r22
    2174:	01 c0       	rjmp	.+2      	; 0x2178 <_fpadd_parts+0x288>
    2176:	fe 01       	movw	r30, r28
    2178:	cf 01       	movw	r24, r30
    217a:	cd b7       	in	r28, 0x3d	; 61
    217c:	de b7       	in	r29, 0x3e	; 62
    217e:	ee e0       	ldi	r30, 0x0E	; 14
    2180:	0c 94 9c 16 	jmp	0x2d38	; 0x2d38 <__epilogue_restores__+0x8>

00002184 <__addsf3>:
    2184:	a0 e2       	ldi	r26, 0x20	; 32
    2186:	b0 e0       	ldi	r27, 0x00	; 0
    2188:	e8 ec       	ldi	r30, 0xC8	; 200
    218a:	f0 e1       	ldi	r31, 0x10	; 16
    218c:	0c 94 88 16 	jmp	0x2d10	; 0x2d10 <__prologue_saves__+0x18>
    2190:	69 83       	std	Y+1, r22	; 0x01
    2192:	7a 83       	std	Y+2, r23	; 0x02
    2194:	8b 83       	std	Y+3, r24	; 0x03
    2196:	9c 83       	std	Y+4, r25	; 0x04
    2198:	2d 83       	std	Y+5, r18	; 0x05
    219a:	3e 83       	std	Y+6, r19	; 0x06
    219c:	4f 83       	std	Y+7, r20	; 0x07
    219e:	58 87       	std	Y+8, r21	; 0x08
    21a0:	89 e0       	ldi	r24, 0x09	; 9
    21a2:	e8 2e       	mov	r14, r24
    21a4:	f1 2c       	mov	r15, r1
    21a6:	ec 0e       	add	r14, r28
    21a8:	fd 1e       	adc	r15, r29
    21aa:	ce 01       	movw	r24, r28
    21ac:	01 96       	adiw	r24, 0x01	; 1
    21ae:	b7 01       	movw	r22, r14
    21b0:	0e 94 4a 15 	call	0x2a94	; 0x2a94 <__unpack_f>
    21b4:	8e 01       	movw	r16, r28
    21b6:	0f 5e       	subi	r16, 0xEF	; 239
    21b8:	1f 4f       	sbci	r17, 0xFF	; 255
    21ba:	ce 01       	movw	r24, r28
    21bc:	05 96       	adiw	r24, 0x05	; 5
    21be:	b8 01       	movw	r22, r16
    21c0:	0e 94 4a 15 	call	0x2a94	; 0x2a94 <__unpack_f>
    21c4:	c7 01       	movw	r24, r14
    21c6:	b8 01       	movw	r22, r16
    21c8:	ae 01       	movw	r20, r28
    21ca:	47 5e       	subi	r20, 0xE7	; 231
    21cc:	5f 4f       	sbci	r21, 0xFF	; 255
    21ce:	0e 94 78 0f 	call	0x1ef0	; 0x1ef0 <_fpadd_parts>
    21d2:	0e 94 7c 14 	call	0x28f8	; 0x28f8 <__pack_f>
    21d6:	a0 96       	adiw	r28, 0x20	; 32
    21d8:	e6 e0       	ldi	r30, 0x06	; 6
    21da:	0c 94 a4 16 	jmp	0x2d48	; 0x2d48 <__epilogue_restores__+0x18>

000021de <__subsf3>:
    21de:	a0 e2       	ldi	r26, 0x20	; 32
    21e0:	b0 e0       	ldi	r27, 0x00	; 0
    21e2:	e5 ef       	ldi	r30, 0xF5	; 245
    21e4:	f0 e1       	ldi	r31, 0x10	; 16
    21e6:	0c 94 88 16 	jmp	0x2d10	; 0x2d10 <__prologue_saves__+0x18>
    21ea:	69 83       	std	Y+1, r22	; 0x01
    21ec:	7a 83       	std	Y+2, r23	; 0x02
    21ee:	8b 83       	std	Y+3, r24	; 0x03
    21f0:	9c 83       	std	Y+4, r25	; 0x04
    21f2:	2d 83       	std	Y+5, r18	; 0x05
    21f4:	3e 83       	std	Y+6, r19	; 0x06
    21f6:	4f 83       	std	Y+7, r20	; 0x07
    21f8:	58 87       	std	Y+8, r21	; 0x08
    21fa:	8e 01       	movw	r16, r28
    21fc:	07 5f       	subi	r16, 0xF7	; 247
    21fe:	1f 4f       	sbci	r17, 0xFF	; 255
    2200:	ce 01       	movw	r24, r28
    2202:	01 96       	adiw	r24, 0x01	; 1
    2204:	b8 01       	movw	r22, r16
    2206:	0e 94 4a 15 	call	0x2a94	; 0x2a94 <__unpack_f>
    220a:	91 e1       	ldi	r25, 0x11	; 17
    220c:	e9 2e       	mov	r14, r25
    220e:	f1 2c       	mov	r15, r1
    2210:	ec 0e       	add	r14, r28
    2212:	fd 1e       	adc	r15, r29
    2214:	ce 01       	movw	r24, r28
    2216:	05 96       	adiw	r24, 0x05	; 5
    2218:	b7 01       	movw	r22, r14
    221a:	0e 94 4a 15 	call	0x2a94	; 0x2a94 <__unpack_f>
    221e:	8a 89       	ldd	r24, Y+18	; 0x12
    2220:	91 e0       	ldi	r25, 0x01	; 1
    2222:	89 27       	eor	r24, r25
    2224:	8a 8b       	std	Y+18, r24	; 0x12
    2226:	c8 01       	movw	r24, r16
    2228:	b7 01       	movw	r22, r14
    222a:	ae 01       	movw	r20, r28
    222c:	47 5e       	subi	r20, 0xE7	; 231
    222e:	5f 4f       	sbci	r21, 0xFF	; 255
    2230:	0e 94 78 0f 	call	0x1ef0	; 0x1ef0 <_fpadd_parts>
    2234:	0e 94 7c 14 	call	0x28f8	; 0x28f8 <__pack_f>
    2238:	a0 96       	adiw	r28, 0x20	; 32
    223a:	e6 e0       	ldi	r30, 0x06	; 6
    223c:	0c 94 a4 16 	jmp	0x2d48	; 0x2d48 <__epilogue_restores__+0x18>

00002240 <__mulsf3>:
    2240:	a0 e2       	ldi	r26, 0x20	; 32
    2242:	b0 e0       	ldi	r27, 0x00	; 0
    2244:	e6 e2       	ldi	r30, 0x26	; 38
    2246:	f1 e1       	ldi	r31, 0x11	; 17
    2248:	0c 94 7c 16 	jmp	0x2cf8	; 0x2cf8 <__prologue_saves__>
    224c:	69 83       	std	Y+1, r22	; 0x01
    224e:	7a 83       	std	Y+2, r23	; 0x02
    2250:	8b 83       	std	Y+3, r24	; 0x03
    2252:	9c 83       	std	Y+4, r25	; 0x04
    2254:	2d 83       	std	Y+5, r18	; 0x05
    2256:	3e 83       	std	Y+6, r19	; 0x06
    2258:	4f 83       	std	Y+7, r20	; 0x07
    225a:	58 87       	std	Y+8, r21	; 0x08
    225c:	ce 01       	movw	r24, r28
    225e:	01 96       	adiw	r24, 0x01	; 1
    2260:	be 01       	movw	r22, r28
    2262:	67 5f       	subi	r22, 0xF7	; 247
    2264:	7f 4f       	sbci	r23, 0xFF	; 255
    2266:	0e 94 4a 15 	call	0x2a94	; 0x2a94 <__unpack_f>
    226a:	ce 01       	movw	r24, r28
    226c:	05 96       	adiw	r24, 0x05	; 5
    226e:	be 01       	movw	r22, r28
    2270:	6f 5e       	subi	r22, 0xEF	; 239
    2272:	7f 4f       	sbci	r23, 0xFF	; 255
    2274:	0e 94 4a 15 	call	0x2a94	; 0x2a94 <__unpack_f>
    2278:	99 85       	ldd	r25, Y+9	; 0x09
    227a:	92 30       	cpi	r25, 0x02	; 2
    227c:	78 f0       	brcs	.+30     	; 0x229c <__mulsf3+0x5c>
    227e:	89 89       	ldd	r24, Y+17	; 0x11
    2280:	82 30       	cpi	r24, 0x02	; 2
    2282:	c0 f0       	brcs	.+48     	; 0x22b4 <__mulsf3+0x74>
    2284:	94 30       	cpi	r25, 0x04	; 4
    2286:	19 f4       	brne	.+6      	; 0x228e <__mulsf3+0x4e>
    2288:	82 30       	cpi	r24, 0x02	; 2
    228a:	41 f4       	brne	.+16     	; 0x229c <__mulsf3+0x5c>
    228c:	cb c0       	rjmp	.+406    	; 0x2424 <__mulsf3+0x1e4>
    228e:	84 30       	cpi	r24, 0x04	; 4
    2290:	19 f4       	brne	.+6      	; 0x2298 <__mulsf3+0x58>
    2292:	92 30       	cpi	r25, 0x02	; 2
    2294:	79 f4       	brne	.+30     	; 0x22b4 <__mulsf3+0x74>
    2296:	c6 c0       	rjmp	.+396    	; 0x2424 <__mulsf3+0x1e4>
    2298:	92 30       	cpi	r25, 0x02	; 2
    229a:	51 f4       	brne	.+20     	; 0x22b0 <__mulsf3+0x70>
    229c:	81 e0       	ldi	r24, 0x01	; 1
    229e:	2a 85       	ldd	r18, Y+10	; 0x0a
    22a0:	9a 89       	ldd	r25, Y+18	; 0x12
    22a2:	29 17       	cp	r18, r25
    22a4:	09 f4       	brne	.+2      	; 0x22a8 <__mulsf3+0x68>
    22a6:	80 e0       	ldi	r24, 0x00	; 0
    22a8:	8a 87       	std	Y+10, r24	; 0x0a
    22aa:	ce 01       	movw	r24, r28
    22ac:	09 96       	adiw	r24, 0x09	; 9
    22ae:	bc c0       	rjmp	.+376    	; 0x2428 <__mulsf3+0x1e8>
    22b0:	82 30       	cpi	r24, 0x02	; 2
    22b2:	51 f4       	brne	.+20     	; 0x22c8 <__mulsf3+0x88>
    22b4:	81 e0       	ldi	r24, 0x01	; 1
    22b6:	2a 85       	ldd	r18, Y+10	; 0x0a
    22b8:	9a 89       	ldd	r25, Y+18	; 0x12
    22ba:	29 17       	cp	r18, r25
    22bc:	09 f4       	brne	.+2      	; 0x22c0 <__mulsf3+0x80>
    22be:	80 e0       	ldi	r24, 0x00	; 0
    22c0:	8a 8b       	std	Y+18, r24	; 0x12
    22c2:	ce 01       	movw	r24, r28
    22c4:	41 96       	adiw	r24, 0x11	; 17
    22c6:	b0 c0       	rjmp	.+352    	; 0x2428 <__mulsf3+0x1e8>
    22c8:	6d 84       	ldd	r6, Y+13	; 0x0d
    22ca:	7e 84       	ldd	r7, Y+14	; 0x0e
    22cc:	8f 84       	ldd	r8, Y+15	; 0x0f
    22ce:	98 88       	ldd	r9, Y+16	; 0x10
    22d0:	ed 88       	ldd	r14, Y+21	; 0x15
    22d2:	fe 88       	ldd	r15, Y+22	; 0x16
    22d4:	0f 89       	ldd	r16, Y+23	; 0x17
    22d6:	18 8d       	ldd	r17, Y+24	; 0x18
    22d8:	e0 e2       	ldi	r30, 0x20	; 32
    22da:	f0 e0       	ldi	r31, 0x00	; 0
    22dc:	80 e0       	ldi	r24, 0x00	; 0
    22de:	90 e0       	ldi	r25, 0x00	; 0
    22e0:	dc 01       	movw	r26, r24
    22e2:	aa 24       	eor	r10, r10
    22e4:	bb 24       	eor	r11, r11
    22e6:	65 01       	movw	r12, r10
    22e8:	20 e0       	ldi	r18, 0x00	; 0
    22ea:	30 e0       	ldi	r19, 0x00	; 0
    22ec:	a9 01       	movw	r20, r18
    22ee:	b3 01       	movw	r22, r6
    22f0:	61 70       	andi	r22, 0x01	; 1
    22f2:	70 70       	andi	r23, 0x00	; 0
    22f4:	61 15       	cp	r22, r1
    22f6:	71 05       	cpc	r23, r1
    22f8:	d1 f0       	breq	.+52     	; 0x232e <__mulsf3+0xee>
    22fa:	2e 0d       	add	r18, r14
    22fc:	3f 1d       	adc	r19, r15
    22fe:	40 1f       	adc	r20, r16
    2300:	51 1f       	adc	r21, r17
    2302:	15 01       	movw	r2, r10
    2304:	26 01       	movw	r4, r12
    2306:	28 0e       	add	r2, r24
    2308:	39 1e       	adc	r3, r25
    230a:	4a 1e       	adc	r4, r26
    230c:	5b 1e       	adc	r5, r27
    230e:	81 e0       	ldi	r24, 0x01	; 1
    2310:	90 e0       	ldi	r25, 0x00	; 0
    2312:	a0 e0       	ldi	r26, 0x00	; 0
    2314:	b0 e0       	ldi	r27, 0x00	; 0
    2316:	2e 15       	cp	r18, r14
    2318:	3f 05       	cpc	r19, r15
    231a:	40 07       	cpc	r20, r16
    231c:	51 07       	cpc	r21, r17
    231e:	18 f0       	brcs	.+6      	; 0x2326 <__mulsf3+0xe6>
    2320:	80 e0       	ldi	r24, 0x00	; 0
    2322:	90 e0       	ldi	r25, 0x00	; 0
    2324:	dc 01       	movw	r26, r24
    2326:	82 0d       	add	r24, r2
    2328:	93 1d       	adc	r25, r3
    232a:	a4 1d       	adc	r26, r4
    232c:	b5 1d       	adc	r27, r5
    232e:	aa 0c       	add	r10, r10
    2330:	bb 1c       	adc	r11, r11
    2332:	cc 1c       	adc	r12, r12
    2334:	dd 1c       	adc	r13, r13
    2336:	17 ff       	sbrs	r17, 7
    2338:	09 c0       	rjmp	.+18     	; 0x234c <__mulsf3+0x10c>
    233a:	61 e0       	ldi	r22, 0x01	; 1
    233c:	26 2e       	mov	r2, r22
    233e:	31 2c       	mov	r3, r1
    2340:	41 2c       	mov	r4, r1
    2342:	51 2c       	mov	r5, r1
    2344:	a2 28       	or	r10, r2
    2346:	b3 28       	or	r11, r3
    2348:	c4 28       	or	r12, r4
    234a:	d5 28       	or	r13, r5
    234c:	31 97       	sbiw	r30, 0x01	; 1
    234e:	49 f0       	breq	.+18     	; 0x2362 <__mulsf3+0x122>
    2350:	ee 0c       	add	r14, r14
    2352:	ff 1c       	adc	r15, r15
    2354:	00 1f       	adc	r16, r16
    2356:	11 1f       	adc	r17, r17
    2358:	96 94       	lsr	r9
    235a:	87 94       	ror	r8
    235c:	77 94       	ror	r7
    235e:	67 94       	ror	r6
    2360:	c6 cf       	rjmp	.-116    	; 0x22ee <__mulsf3+0xae>
    2362:	6b 89       	ldd	r22, Y+19	; 0x13
    2364:	7c 89       	ldd	r23, Y+20	; 0x14
    2366:	eb 85       	ldd	r30, Y+11	; 0x0b
    2368:	fc 85       	ldd	r31, Y+12	; 0x0c
    236a:	6e 0f       	add	r22, r30
    236c:	7f 1f       	adc	r23, r31
    236e:	6e 5f       	subi	r22, 0xFE	; 254
    2370:	7f 4f       	sbci	r23, 0xFF	; 255
    2372:	7c 8f       	std	Y+28, r23	; 0x1c
    2374:	6b 8f       	std	Y+27, r22	; 0x1b
    2376:	61 e0       	ldi	r22, 0x01	; 1
    2378:	ea 85       	ldd	r30, Y+10	; 0x0a
    237a:	7a 89       	ldd	r23, Y+18	; 0x12
    237c:	e7 17       	cp	r30, r23
    237e:	09 f4       	brne	.+2      	; 0x2382 <__mulsf3+0x142>
    2380:	60 e0       	ldi	r22, 0x00	; 0
    2382:	6a 8f       	std	Y+26, r22	; 0x1a
    2384:	6b 8d       	ldd	r22, Y+27	; 0x1b
    2386:	7c 8d       	ldd	r23, Y+28	; 0x1c
    2388:	10 c0       	rjmp	.+32     	; 0x23aa <__mulsf3+0x16a>
    238a:	fc 01       	movw	r30, r24
    238c:	e1 70       	andi	r30, 0x01	; 1
    238e:	f0 70       	andi	r31, 0x00	; 0
    2390:	30 97       	sbiw	r30, 0x00	; 0
    2392:	29 f0       	breq	.+10     	; 0x239e <__mulsf3+0x15e>
    2394:	56 95       	lsr	r21
    2396:	47 95       	ror	r20
    2398:	37 95       	ror	r19
    239a:	27 95       	ror	r18
    239c:	50 68       	ori	r21, 0x80	; 128
    239e:	b6 95       	lsr	r27
    23a0:	a7 95       	ror	r26
    23a2:	97 95       	ror	r25
    23a4:	87 95       	ror	r24
    23a6:	6f 5f       	subi	r22, 0xFF	; 255
    23a8:	7f 4f       	sbci	r23, 0xFF	; 255
    23aa:	b7 fd       	sbrc	r27, 7
    23ac:	ee cf       	rjmp	.-36     	; 0x238a <__mulsf3+0x14a>
    23ae:	0c c0       	rjmp	.+24     	; 0x23c8 <__mulsf3+0x188>
    23b0:	88 0f       	add	r24, r24
    23b2:	99 1f       	adc	r25, r25
    23b4:	aa 1f       	adc	r26, r26
    23b6:	bb 1f       	adc	r27, r27
    23b8:	57 fd       	sbrc	r21, 7
    23ba:	81 60       	ori	r24, 0x01	; 1
    23bc:	22 0f       	add	r18, r18
    23be:	33 1f       	adc	r19, r19
    23c0:	44 1f       	adc	r20, r20
    23c2:	55 1f       	adc	r21, r21
    23c4:	61 50       	subi	r22, 0x01	; 1
    23c6:	70 40       	sbci	r23, 0x00	; 0
    23c8:	80 30       	cpi	r24, 0x00	; 0
    23ca:	e0 e0       	ldi	r30, 0x00	; 0
    23cc:	9e 07       	cpc	r25, r30
    23ce:	e0 e0       	ldi	r30, 0x00	; 0
    23d0:	ae 07       	cpc	r26, r30
    23d2:	e0 e4       	ldi	r30, 0x40	; 64
    23d4:	be 07       	cpc	r27, r30
    23d6:	60 f3       	brcs	.-40     	; 0x23b0 <__mulsf3+0x170>
    23d8:	6b 8f       	std	Y+27, r22	; 0x1b
    23da:	7c 8f       	std	Y+28, r23	; 0x1c
    23dc:	6f e7       	ldi	r22, 0x7F	; 127
    23de:	e6 2e       	mov	r14, r22
    23e0:	f1 2c       	mov	r15, r1
    23e2:	01 2d       	mov	r16, r1
    23e4:	11 2d       	mov	r17, r1
    23e6:	e8 22       	and	r14, r24
    23e8:	f9 22       	and	r15, r25
    23ea:	0a 23       	and	r16, r26
    23ec:	1b 23       	and	r17, r27
    23ee:	60 e4       	ldi	r22, 0x40	; 64
    23f0:	e6 16       	cp	r14, r22
    23f2:	f1 04       	cpc	r15, r1
    23f4:	01 05       	cpc	r16, r1
    23f6:	11 05       	cpc	r17, r1
    23f8:	61 f4       	brne	.+24     	; 0x2412 <__mulsf3+0x1d2>
    23fa:	87 fd       	sbrc	r24, 7
    23fc:	0a c0       	rjmp	.+20     	; 0x2412 <__mulsf3+0x1d2>
    23fe:	21 15       	cp	r18, r1
    2400:	31 05       	cpc	r19, r1
    2402:	41 05       	cpc	r20, r1
    2404:	51 05       	cpc	r21, r1
    2406:	29 f0       	breq	.+10     	; 0x2412 <__mulsf3+0x1d2>
    2408:	80 5c       	subi	r24, 0xC0	; 192
    240a:	9f 4f       	sbci	r25, 0xFF	; 255
    240c:	af 4f       	sbci	r26, 0xFF	; 255
    240e:	bf 4f       	sbci	r27, 0xFF	; 255
    2410:	80 78       	andi	r24, 0x80	; 128
    2412:	8d 8f       	std	Y+29, r24	; 0x1d
    2414:	9e 8f       	std	Y+30, r25	; 0x1e
    2416:	af 8f       	std	Y+31, r26	; 0x1f
    2418:	b8 a3       	std	Y+32, r27	; 0x20
    241a:	83 e0       	ldi	r24, 0x03	; 3
    241c:	89 8f       	std	Y+25, r24	; 0x19
    241e:	ce 01       	movw	r24, r28
    2420:	49 96       	adiw	r24, 0x19	; 25
    2422:	02 c0       	rjmp	.+4      	; 0x2428 <__mulsf3+0x1e8>
    2424:	80 e6       	ldi	r24, 0x60	; 96
    2426:	90 e0       	ldi	r25, 0x00	; 0
    2428:	0e 94 7c 14 	call	0x28f8	; 0x28f8 <__pack_f>
    242c:	a0 96       	adiw	r28, 0x20	; 32
    242e:	e2 e1       	ldi	r30, 0x12	; 18
    2430:	0c 94 98 16 	jmp	0x2d30	; 0x2d30 <__epilogue_restores__>

00002434 <__divsf3>:
    2434:	a8 e1       	ldi	r26, 0x18	; 24
    2436:	b0 e0       	ldi	r27, 0x00	; 0
    2438:	e0 e2       	ldi	r30, 0x20	; 32
    243a:	f2 e1       	ldi	r31, 0x12	; 18
    243c:	0c 94 84 16 	jmp	0x2d08	; 0x2d08 <__prologue_saves__+0x10>
    2440:	69 83       	std	Y+1, r22	; 0x01
    2442:	7a 83       	std	Y+2, r23	; 0x02
    2444:	8b 83       	std	Y+3, r24	; 0x03
    2446:	9c 83       	std	Y+4, r25	; 0x04
    2448:	2d 83       	std	Y+5, r18	; 0x05
    244a:	3e 83       	std	Y+6, r19	; 0x06
    244c:	4f 83       	std	Y+7, r20	; 0x07
    244e:	58 87       	std	Y+8, r21	; 0x08
    2450:	8e 01       	movw	r16, r28
    2452:	07 5f       	subi	r16, 0xF7	; 247
    2454:	1f 4f       	sbci	r17, 0xFF	; 255
    2456:	ce 01       	movw	r24, r28
    2458:	01 96       	adiw	r24, 0x01	; 1
    245a:	b8 01       	movw	r22, r16
    245c:	0e 94 4a 15 	call	0x2a94	; 0x2a94 <__unpack_f>
    2460:	81 e1       	ldi	r24, 0x11	; 17
    2462:	e8 2e       	mov	r14, r24
    2464:	f1 2c       	mov	r15, r1
    2466:	ec 0e       	add	r14, r28
    2468:	fd 1e       	adc	r15, r29
    246a:	ce 01       	movw	r24, r28
    246c:	05 96       	adiw	r24, 0x05	; 5
    246e:	b7 01       	movw	r22, r14
    2470:	0e 94 4a 15 	call	0x2a94	; 0x2a94 <__unpack_f>
    2474:	99 85       	ldd	r25, Y+9	; 0x09
    2476:	92 30       	cpi	r25, 0x02	; 2
    2478:	08 f4       	brcc	.+2      	; 0x247c <__divsf3+0x48>
    247a:	83 c0       	rjmp	.+262    	; 0x2582 <__divsf3+0x14e>
    247c:	89 89       	ldd	r24, Y+17	; 0x11
    247e:	82 30       	cpi	r24, 0x02	; 2
    2480:	08 f4       	brcc	.+2      	; 0x2484 <__divsf3+0x50>
    2482:	7b c0       	rjmp	.+246    	; 0x257a <__divsf3+0x146>
    2484:	2a 85       	ldd	r18, Y+10	; 0x0a
    2486:	3a 89       	ldd	r19, Y+18	; 0x12
    2488:	23 27       	eor	r18, r19
    248a:	2a 87       	std	Y+10, r18	; 0x0a
    248c:	94 30       	cpi	r25, 0x04	; 4
    248e:	11 f0       	breq	.+4      	; 0x2494 <__divsf3+0x60>
    2490:	92 30       	cpi	r25, 0x02	; 2
    2492:	21 f4       	brne	.+8      	; 0x249c <__divsf3+0x68>
    2494:	98 17       	cp	r25, r24
    2496:	09 f0       	breq	.+2      	; 0x249a <__divsf3+0x66>
    2498:	6c c0       	rjmp	.+216    	; 0x2572 <__divsf3+0x13e>
    249a:	71 c0       	rjmp	.+226    	; 0x257e <__divsf3+0x14a>
    249c:	84 30       	cpi	r24, 0x04	; 4
    249e:	39 f4       	brne	.+14     	; 0x24ae <__divsf3+0x7a>
    24a0:	1d 86       	std	Y+13, r1	; 0x0d
    24a2:	1e 86       	std	Y+14, r1	; 0x0e
    24a4:	1f 86       	std	Y+15, r1	; 0x0f
    24a6:	18 8a       	std	Y+16, r1	; 0x10
    24a8:	1c 86       	std	Y+12, r1	; 0x0c
    24aa:	1b 86       	std	Y+11, r1	; 0x0b
    24ac:	6a c0       	rjmp	.+212    	; 0x2582 <__divsf3+0x14e>
    24ae:	82 30       	cpi	r24, 0x02	; 2
    24b0:	19 f4       	brne	.+6      	; 0x24b8 <__divsf3+0x84>
    24b2:	84 e0       	ldi	r24, 0x04	; 4
    24b4:	89 87       	std	Y+9, r24	; 0x09
    24b6:	65 c0       	rjmp	.+202    	; 0x2582 <__divsf3+0x14e>
    24b8:	8b 85       	ldd	r24, Y+11	; 0x0b
    24ba:	9c 85       	ldd	r25, Y+12	; 0x0c
    24bc:	2b 89       	ldd	r18, Y+19	; 0x13
    24be:	3c 89       	ldd	r19, Y+20	; 0x14
    24c0:	82 1b       	sub	r24, r18
    24c2:	93 0b       	sbc	r25, r19
    24c4:	9c 87       	std	Y+12, r25	; 0x0c
    24c6:	8b 87       	std	Y+11, r24	; 0x0b
    24c8:	2d 85       	ldd	r18, Y+13	; 0x0d
    24ca:	3e 85       	ldd	r19, Y+14	; 0x0e
    24cc:	4f 85       	ldd	r20, Y+15	; 0x0f
    24ce:	58 89       	ldd	r21, Y+16	; 0x10
    24d0:	ed 88       	ldd	r14, Y+21	; 0x15
    24d2:	fe 88       	ldd	r15, Y+22	; 0x16
    24d4:	0f 89       	ldd	r16, Y+23	; 0x17
    24d6:	18 8d       	ldd	r17, Y+24	; 0x18
    24d8:	2e 15       	cp	r18, r14
    24da:	3f 05       	cpc	r19, r15
    24dc:	40 07       	cpc	r20, r16
    24de:	51 07       	cpc	r21, r17
    24e0:	38 f4       	brcc	.+14     	; 0x24f0 <__divsf3+0xbc>
    24e2:	22 0f       	add	r18, r18
    24e4:	33 1f       	adc	r19, r19
    24e6:	44 1f       	adc	r20, r20
    24e8:	55 1f       	adc	r21, r21
    24ea:	01 97       	sbiw	r24, 0x01	; 1
    24ec:	9c 87       	std	Y+12, r25	; 0x0c
    24ee:	8b 87       	std	Y+11, r24	; 0x0b
    24f0:	6f e1       	ldi	r22, 0x1F	; 31
    24f2:	70 e0       	ldi	r23, 0x00	; 0
    24f4:	a1 2c       	mov	r10, r1
    24f6:	b1 2c       	mov	r11, r1
    24f8:	c1 2c       	mov	r12, r1
    24fa:	a0 e4       	ldi	r26, 0x40	; 64
    24fc:	da 2e       	mov	r13, r26
    24fe:	80 e0       	ldi	r24, 0x00	; 0
    2500:	90 e0       	ldi	r25, 0x00	; 0
    2502:	dc 01       	movw	r26, r24
    2504:	2e 15       	cp	r18, r14
    2506:	3f 05       	cpc	r19, r15
    2508:	40 07       	cpc	r20, r16
    250a:	51 07       	cpc	r21, r17
    250c:	40 f0       	brcs	.+16     	; 0x251e <__divsf3+0xea>
    250e:	8a 29       	or	r24, r10
    2510:	9b 29       	or	r25, r11
    2512:	ac 29       	or	r26, r12
    2514:	bd 29       	or	r27, r13
    2516:	2e 19       	sub	r18, r14
    2518:	3f 09       	sbc	r19, r15
    251a:	40 0b       	sbc	r20, r16
    251c:	51 0b       	sbc	r21, r17
    251e:	d6 94       	lsr	r13
    2520:	c7 94       	ror	r12
    2522:	b7 94       	ror	r11
    2524:	a7 94       	ror	r10
    2526:	22 0f       	add	r18, r18
    2528:	33 1f       	adc	r19, r19
    252a:	44 1f       	adc	r20, r20
    252c:	55 1f       	adc	r21, r21
    252e:	61 50       	subi	r22, 0x01	; 1
    2530:	70 40       	sbci	r23, 0x00	; 0
    2532:	41 f7       	brne	.-48     	; 0x2504 <__divsf3+0xd0>
    2534:	6f e7       	ldi	r22, 0x7F	; 127
    2536:	e6 2e       	mov	r14, r22
    2538:	f1 2c       	mov	r15, r1
    253a:	01 2d       	mov	r16, r1
    253c:	11 2d       	mov	r17, r1
    253e:	e8 22       	and	r14, r24
    2540:	f9 22       	and	r15, r25
    2542:	0a 23       	and	r16, r26
    2544:	1b 23       	and	r17, r27
    2546:	60 e4       	ldi	r22, 0x40	; 64
    2548:	e6 16       	cp	r14, r22
    254a:	f1 04       	cpc	r15, r1
    254c:	01 05       	cpc	r16, r1
    254e:	11 05       	cpc	r17, r1
    2550:	61 f4       	brne	.+24     	; 0x256a <__divsf3+0x136>
    2552:	87 fd       	sbrc	r24, 7
    2554:	0a c0       	rjmp	.+20     	; 0x256a <__divsf3+0x136>
    2556:	21 15       	cp	r18, r1
    2558:	31 05       	cpc	r19, r1
    255a:	41 05       	cpc	r20, r1
    255c:	51 05       	cpc	r21, r1
    255e:	29 f0       	breq	.+10     	; 0x256a <__divsf3+0x136>
    2560:	80 5c       	subi	r24, 0xC0	; 192
    2562:	9f 4f       	sbci	r25, 0xFF	; 255
    2564:	af 4f       	sbci	r26, 0xFF	; 255
    2566:	bf 4f       	sbci	r27, 0xFF	; 255
    2568:	80 78       	andi	r24, 0x80	; 128
    256a:	8d 87       	std	Y+13, r24	; 0x0d
    256c:	9e 87       	std	Y+14, r25	; 0x0e
    256e:	af 87       	std	Y+15, r26	; 0x0f
    2570:	b8 8b       	std	Y+16, r27	; 0x10
    2572:	8e 01       	movw	r16, r28
    2574:	07 5f       	subi	r16, 0xF7	; 247
    2576:	1f 4f       	sbci	r17, 0xFF	; 255
    2578:	04 c0       	rjmp	.+8      	; 0x2582 <__divsf3+0x14e>
    257a:	87 01       	movw	r16, r14
    257c:	02 c0       	rjmp	.+4      	; 0x2582 <__divsf3+0x14e>
    257e:	00 e6       	ldi	r16, 0x60	; 96
    2580:	10 e0       	ldi	r17, 0x00	; 0
    2582:	c8 01       	movw	r24, r16
    2584:	0e 94 7c 14 	call	0x28f8	; 0x28f8 <__pack_f>
    2588:	68 96       	adiw	r28, 0x18	; 24
    258a:	ea e0       	ldi	r30, 0x0A	; 10
    258c:	0c 94 a0 16 	jmp	0x2d40	; 0x2d40 <__epilogue_restores__+0x10>

00002590 <__gesf2>:
    2590:	a8 e1       	ldi	r26, 0x18	; 24
    2592:	b0 e0       	ldi	r27, 0x00	; 0
    2594:	ee ec       	ldi	r30, 0xCE	; 206
    2596:	f2 e1       	ldi	r31, 0x12	; 18
    2598:	0c 94 88 16 	jmp	0x2d10	; 0x2d10 <__prologue_saves__+0x18>
    259c:	69 83       	std	Y+1, r22	; 0x01
    259e:	7a 83       	std	Y+2, r23	; 0x02
    25a0:	8b 83       	std	Y+3, r24	; 0x03
    25a2:	9c 83       	std	Y+4, r25	; 0x04
    25a4:	2d 83       	std	Y+5, r18	; 0x05
    25a6:	3e 83       	std	Y+6, r19	; 0x06
    25a8:	4f 83       	std	Y+7, r20	; 0x07
    25aa:	58 87       	std	Y+8, r21	; 0x08
    25ac:	8e 01       	movw	r16, r28
    25ae:	07 5f       	subi	r16, 0xF7	; 247
    25b0:	1f 4f       	sbci	r17, 0xFF	; 255
    25b2:	ce 01       	movw	r24, r28
    25b4:	01 96       	adiw	r24, 0x01	; 1
    25b6:	b8 01       	movw	r22, r16
    25b8:	0e 94 4a 15 	call	0x2a94	; 0x2a94 <__unpack_f>
    25bc:	81 e1       	ldi	r24, 0x11	; 17
    25be:	e8 2e       	mov	r14, r24
    25c0:	f1 2c       	mov	r15, r1
    25c2:	ec 0e       	add	r14, r28
    25c4:	fd 1e       	adc	r15, r29
    25c6:	ce 01       	movw	r24, r28
    25c8:	05 96       	adiw	r24, 0x05	; 5
    25ca:	b7 01       	movw	r22, r14
    25cc:	0e 94 4a 15 	call	0x2a94	; 0x2a94 <__unpack_f>
    25d0:	89 85       	ldd	r24, Y+9	; 0x09
    25d2:	82 30       	cpi	r24, 0x02	; 2
    25d4:	40 f0       	brcs	.+16     	; 0x25e6 <__gesf2+0x56>
    25d6:	89 89       	ldd	r24, Y+17	; 0x11
    25d8:	82 30       	cpi	r24, 0x02	; 2
    25da:	28 f0       	brcs	.+10     	; 0x25e6 <__gesf2+0x56>
    25dc:	c8 01       	movw	r24, r16
    25de:	b7 01       	movw	r22, r14
    25e0:	0e 94 b3 15 	call	0x2b66	; 0x2b66 <__fpcmp_parts_f>
    25e4:	01 c0       	rjmp	.+2      	; 0x25e8 <__gesf2+0x58>
    25e6:	8f ef       	ldi	r24, 0xFF	; 255
    25e8:	68 96       	adiw	r28, 0x18	; 24
    25ea:	e6 e0       	ldi	r30, 0x06	; 6
    25ec:	0c 94 a4 16 	jmp	0x2d48	; 0x2d48 <__epilogue_restores__+0x18>

000025f0 <__floatsisf>:
    25f0:	a8 e0       	ldi	r26, 0x08	; 8
    25f2:	b0 e0       	ldi	r27, 0x00	; 0
    25f4:	ee ef       	ldi	r30, 0xFE	; 254
    25f6:	f2 e1       	ldi	r31, 0x12	; 18
    25f8:	0c 94 88 16 	jmp	0x2d10	; 0x2d10 <__prologue_saves__+0x18>
    25fc:	7b 01       	movw	r14, r22
    25fe:	8c 01       	movw	r16, r24
    2600:	83 e0       	ldi	r24, 0x03	; 3
    2602:	89 83       	std	Y+1, r24	; 0x01
    2604:	d8 01       	movw	r26, r16
    2606:	c7 01       	movw	r24, r14
    2608:	88 27       	eor	r24, r24
    260a:	b7 fd       	sbrc	r27, 7
    260c:	83 95       	inc	r24
    260e:	99 27       	eor	r25, r25
    2610:	aa 27       	eor	r26, r26
    2612:	bb 27       	eor	r27, r27
    2614:	28 2f       	mov	r18, r24
    2616:	8a 83       	std	Y+2, r24	; 0x02
    2618:	e1 14       	cp	r14, r1
    261a:	f1 04       	cpc	r15, r1
    261c:	01 05       	cpc	r16, r1
    261e:	11 05       	cpc	r17, r1
    2620:	19 f4       	brne	.+6      	; 0x2628 <__floatsisf+0x38>
    2622:	82 e0       	ldi	r24, 0x02	; 2
    2624:	89 83       	std	Y+1, r24	; 0x01
    2626:	37 c0       	rjmp	.+110    	; 0x2696 <__floatsisf+0xa6>
    2628:	8e e1       	ldi	r24, 0x1E	; 30
    262a:	90 e0       	ldi	r25, 0x00	; 0
    262c:	9c 83       	std	Y+4, r25	; 0x04
    262e:	8b 83       	std	Y+3, r24	; 0x03
    2630:	22 23       	and	r18, r18
    2632:	89 f0       	breq	.+34     	; 0x2656 <__floatsisf+0x66>
    2634:	80 e0       	ldi	r24, 0x00	; 0
    2636:	e8 16       	cp	r14, r24
    2638:	80 e0       	ldi	r24, 0x00	; 0
    263a:	f8 06       	cpc	r15, r24
    263c:	80 e0       	ldi	r24, 0x00	; 0
    263e:	08 07       	cpc	r16, r24
    2640:	80 e8       	ldi	r24, 0x80	; 128
    2642:	18 07       	cpc	r17, r24
    2644:	69 f1       	breq	.+90     	; 0x26a0 <__floatsisf+0xb0>
    2646:	10 95       	com	r17
    2648:	00 95       	com	r16
    264a:	f0 94       	com	r15
    264c:	e0 94       	com	r14
    264e:	e1 1c       	adc	r14, r1
    2650:	f1 1c       	adc	r15, r1
    2652:	01 1d       	adc	r16, r1
    2654:	11 1d       	adc	r17, r1
    2656:	ed 82       	std	Y+5, r14	; 0x05
    2658:	fe 82       	std	Y+6, r15	; 0x06
    265a:	0f 83       	std	Y+7, r16	; 0x07
    265c:	18 87       	std	Y+8, r17	; 0x08
    265e:	c8 01       	movw	r24, r16
    2660:	b7 01       	movw	r22, r14
    2662:	0e 94 22 14 	call	0x2844	; 0x2844 <__clzsi2>
    2666:	9c 01       	movw	r18, r24
    2668:	21 50       	subi	r18, 0x01	; 1
    266a:	30 40       	sbci	r19, 0x00	; 0
    266c:	12 16       	cp	r1, r18
    266e:	13 06       	cpc	r1, r19
    2670:	94 f4       	brge	.+36     	; 0x2696 <__floatsisf+0xa6>
    2672:	02 2e       	mov	r0, r18
    2674:	04 c0       	rjmp	.+8      	; 0x267e <__floatsisf+0x8e>
    2676:	ee 0c       	add	r14, r14
    2678:	ff 1c       	adc	r15, r15
    267a:	00 1f       	adc	r16, r16
    267c:	11 1f       	adc	r17, r17
    267e:	0a 94       	dec	r0
    2680:	d2 f7       	brpl	.-12     	; 0x2676 <__floatsisf+0x86>
    2682:	ed 82       	std	Y+5, r14	; 0x05
    2684:	fe 82       	std	Y+6, r15	; 0x06
    2686:	0f 83       	std	Y+7, r16	; 0x07
    2688:	18 87       	std	Y+8, r17	; 0x08
    268a:	8e e1       	ldi	r24, 0x1E	; 30
    268c:	90 e0       	ldi	r25, 0x00	; 0
    268e:	82 1b       	sub	r24, r18
    2690:	93 0b       	sbc	r25, r19
    2692:	9c 83       	std	Y+4, r25	; 0x04
    2694:	8b 83       	std	Y+3, r24	; 0x03
    2696:	ce 01       	movw	r24, r28
    2698:	01 96       	adiw	r24, 0x01	; 1
    269a:	0e 94 7c 14 	call	0x28f8	; 0x28f8 <__pack_f>
    269e:	04 c0       	rjmp	.+8      	; 0x26a8 <__floatsisf+0xb8>
    26a0:	60 e0       	ldi	r22, 0x00	; 0
    26a2:	70 e0       	ldi	r23, 0x00	; 0
    26a4:	80 e0       	ldi	r24, 0x00	; 0
    26a6:	9f ec       	ldi	r25, 0xCF	; 207
    26a8:	28 96       	adiw	r28, 0x08	; 8
    26aa:	e6 e0       	ldi	r30, 0x06	; 6
    26ac:	0c 94 a4 16 	jmp	0x2d48	; 0x2d48 <__epilogue_restores__+0x18>

000026b0 <__fixsfsi>:
    26b0:	ac e0       	ldi	r26, 0x0C	; 12
    26b2:	b0 e0       	ldi	r27, 0x00	; 0
    26b4:	ee e5       	ldi	r30, 0x5E	; 94
    26b6:	f3 e1       	ldi	r31, 0x13	; 19
    26b8:	0c 94 8c 16 	jmp	0x2d18	; 0x2d18 <__prologue_saves__+0x20>
    26bc:	69 83       	std	Y+1, r22	; 0x01
    26be:	7a 83       	std	Y+2, r23	; 0x02
    26c0:	8b 83       	std	Y+3, r24	; 0x03
    26c2:	9c 83       	std	Y+4, r25	; 0x04
    26c4:	ce 01       	movw	r24, r28
    26c6:	01 96       	adiw	r24, 0x01	; 1
    26c8:	be 01       	movw	r22, r28
    26ca:	6b 5f       	subi	r22, 0xFB	; 251
    26cc:	7f 4f       	sbci	r23, 0xFF	; 255
    26ce:	0e 94 4a 15 	call	0x2a94	; 0x2a94 <__unpack_f>
    26d2:	8d 81       	ldd	r24, Y+5	; 0x05
    26d4:	82 30       	cpi	r24, 0x02	; 2
    26d6:	81 f1       	breq	.+96     	; 0x2738 <__fixsfsi+0x88>
    26d8:	82 30       	cpi	r24, 0x02	; 2
    26da:	70 f1       	brcs	.+92     	; 0x2738 <__fixsfsi+0x88>
    26dc:	84 30       	cpi	r24, 0x04	; 4
    26de:	21 f4       	brne	.+8      	; 0x26e8 <__fixsfsi+0x38>
    26e0:	8e 81       	ldd	r24, Y+6	; 0x06
    26e2:	88 23       	and	r24, r24
    26e4:	69 f1       	breq	.+90     	; 0x2740 <__fixsfsi+0x90>
    26e6:	0a c0       	rjmp	.+20     	; 0x26fc <__fixsfsi+0x4c>
    26e8:	2f 81       	ldd	r18, Y+7	; 0x07
    26ea:	38 85       	ldd	r19, Y+8	; 0x08
    26ec:	37 fd       	sbrc	r19, 7
    26ee:	24 c0       	rjmp	.+72     	; 0x2738 <__fixsfsi+0x88>
    26f0:	6e 81       	ldd	r22, Y+6	; 0x06
    26f2:	2f 31       	cpi	r18, 0x1F	; 31
    26f4:	31 05       	cpc	r19, r1
    26f6:	3c f0       	brlt	.+14     	; 0x2706 <__fixsfsi+0x56>
    26f8:	66 23       	and	r22, r22
    26fa:	11 f1       	breq	.+68     	; 0x2740 <__fixsfsi+0x90>
    26fc:	20 e0       	ldi	r18, 0x00	; 0
    26fe:	30 e0       	ldi	r19, 0x00	; 0
    2700:	40 e0       	ldi	r20, 0x00	; 0
    2702:	50 e8       	ldi	r21, 0x80	; 128
    2704:	21 c0       	rjmp	.+66     	; 0x2748 <__fixsfsi+0x98>
    2706:	8e e1       	ldi	r24, 0x1E	; 30
    2708:	90 e0       	ldi	r25, 0x00	; 0
    270a:	82 1b       	sub	r24, r18
    270c:	93 0b       	sbc	r25, r19
    270e:	29 85       	ldd	r18, Y+9	; 0x09
    2710:	3a 85       	ldd	r19, Y+10	; 0x0a
    2712:	4b 85       	ldd	r20, Y+11	; 0x0b
    2714:	5c 85       	ldd	r21, Y+12	; 0x0c
    2716:	04 c0       	rjmp	.+8      	; 0x2720 <__fixsfsi+0x70>
    2718:	56 95       	lsr	r21
    271a:	47 95       	ror	r20
    271c:	37 95       	ror	r19
    271e:	27 95       	ror	r18
    2720:	8a 95       	dec	r24
    2722:	d2 f7       	brpl	.-12     	; 0x2718 <__fixsfsi+0x68>
    2724:	66 23       	and	r22, r22
    2726:	81 f0       	breq	.+32     	; 0x2748 <__fixsfsi+0x98>
    2728:	50 95       	com	r21
    272a:	40 95       	com	r20
    272c:	30 95       	com	r19
    272e:	21 95       	neg	r18
    2730:	3f 4f       	sbci	r19, 0xFF	; 255
    2732:	4f 4f       	sbci	r20, 0xFF	; 255
    2734:	5f 4f       	sbci	r21, 0xFF	; 255
    2736:	08 c0       	rjmp	.+16     	; 0x2748 <__fixsfsi+0x98>
    2738:	20 e0       	ldi	r18, 0x00	; 0
    273a:	30 e0       	ldi	r19, 0x00	; 0
    273c:	a9 01       	movw	r20, r18
    273e:	04 c0       	rjmp	.+8      	; 0x2748 <__fixsfsi+0x98>
    2740:	2f ef       	ldi	r18, 0xFF	; 255
    2742:	3f ef       	ldi	r19, 0xFF	; 255
    2744:	4f ef       	ldi	r20, 0xFF	; 255
    2746:	5f e7       	ldi	r21, 0x7F	; 127
    2748:	b9 01       	movw	r22, r18
    274a:	ca 01       	movw	r24, r20
    274c:	2c 96       	adiw	r28, 0x0c	; 12
    274e:	e2 e0       	ldi	r30, 0x02	; 2
    2750:	0c 94 a8 16 	jmp	0x2d50	; 0x2d50 <__epilogue_restores__+0x20>

00002754 <__floatunsisf>:
    2754:	a8 e0       	ldi	r26, 0x08	; 8
    2756:	b0 e0       	ldi	r27, 0x00	; 0
    2758:	e0 eb       	ldi	r30, 0xB0	; 176
    275a:	f3 e1       	ldi	r31, 0x13	; 19
    275c:	0c 94 86 16 	jmp	0x2d0c	; 0x2d0c <__prologue_saves__+0x14>
    2760:	7b 01       	movw	r14, r22
    2762:	8c 01       	movw	r16, r24
    2764:	1a 82       	std	Y+2, r1	; 0x02
    2766:	61 15       	cp	r22, r1
    2768:	71 05       	cpc	r23, r1
    276a:	81 05       	cpc	r24, r1
    276c:	91 05       	cpc	r25, r1
    276e:	19 f4       	brne	.+6      	; 0x2776 <__floatunsisf+0x22>
    2770:	82 e0       	ldi	r24, 0x02	; 2
    2772:	89 83       	std	Y+1, r24	; 0x01
    2774:	5f c0       	rjmp	.+190    	; 0x2834 <__floatunsisf+0xe0>
    2776:	83 e0       	ldi	r24, 0x03	; 3
    2778:	89 83       	std	Y+1, r24	; 0x01
    277a:	8e e1       	ldi	r24, 0x1E	; 30
    277c:	c8 2e       	mov	r12, r24
    277e:	d1 2c       	mov	r13, r1
    2780:	dc 82       	std	Y+4, r13	; 0x04
    2782:	cb 82       	std	Y+3, r12	; 0x03
    2784:	ed 82       	std	Y+5, r14	; 0x05
    2786:	fe 82       	std	Y+6, r15	; 0x06
    2788:	0f 83       	std	Y+7, r16	; 0x07
    278a:	18 87       	std	Y+8, r17	; 0x08
    278c:	c8 01       	movw	r24, r16
    278e:	b7 01       	movw	r22, r14
    2790:	0e 94 22 14 	call	0x2844	; 0x2844 <__clzsi2>
    2794:	fc 01       	movw	r30, r24
    2796:	31 97       	sbiw	r30, 0x01	; 1
    2798:	f7 ff       	sbrs	r31, 7
    279a:	3a c0       	rjmp	.+116    	; 0x2810 <__floatunsisf+0xbc>
    279c:	aa 27       	eor	r26, r26
    279e:	bb 27       	eor	r27, r27
    27a0:	ae 1b       	sub	r26, r30
    27a2:	bf 0b       	sbc	r27, r31
    27a4:	21 e0       	ldi	r18, 0x01	; 1
    27a6:	30 e0       	ldi	r19, 0x00	; 0
    27a8:	40 e0       	ldi	r20, 0x00	; 0
    27aa:	50 e0       	ldi	r21, 0x00	; 0
    27ac:	0a 2e       	mov	r0, r26
    27ae:	04 c0       	rjmp	.+8      	; 0x27b8 <__floatunsisf+0x64>
    27b0:	22 0f       	add	r18, r18
    27b2:	33 1f       	adc	r19, r19
    27b4:	44 1f       	adc	r20, r20
    27b6:	55 1f       	adc	r21, r21
    27b8:	0a 94       	dec	r0
    27ba:	d2 f7       	brpl	.-12     	; 0x27b0 <__floatunsisf+0x5c>
    27bc:	21 50       	subi	r18, 0x01	; 1
    27be:	30 40       	sbci	r19, 0x00	; 0
    27c0:	40 40       	sbci	r20, 0x00	; 0
    27c2:	50 40       	sbci	r21, 0x00	; 0
    27c4:	2e 21       	and	r18, r14
    27c6:	3f 21       	and	r19, r15
    27c8:	40 23       	and	r20, r16
    27ca:	51 23       	and	r21, r17
    27cc:	61 e0       	ldi	r22, 0x01	; 1
    27ce:	70 e0       	ldi	r23, 0x00	; 0
    27d0:	80 e0       	ldi	r24, 0x00	; 0
    27d2:	90 e0       	ldi	r25, 0x00	; 0
    27d4:	21 15       	cp	r18, r1
    27d6:	31 05       	cpc	r19, r1
    27d8:	41 05       	cpc	r20, r1
    27da:	51 05       	cpc	r21, r1
    27dc:	19 f4       	brne	.+6      	; 0x27e4 <__floatunsisf+0x90>
    27de:	60 e0       	ldi	r22, 0x00	; 0
    27e0:	70 e0       	ldi	r23, 0x00	; 0
    27e2:	cb 01       	movw	r24, r22
    27e4:	04 c0       	rjmp	.+8      	; 0x27ee <__floatunsisf+0x9a>
    27e6:	16 95       	lsr	r17
    27e8:	07 95       	ror	r16
    27ea:	f7 94       	ror	r15
    27ec:	e7 94       	ror	r14
    27ee:	aa 95       	dec	r26
    27f0:	d2 f7       	brpl	.-12     	; 0x27e6 <__floatunsisf+0x92>
    27f2:	e6 2a       	or	r14, r22
    27f4:	f7 2a       	or	r15, r23
    27f6:	08 2b       	or	r16, r24
    27f8:	19 2b       	or	r17, r25
    27fa:	ed 82       	std	Y+5, r14	; 0x05
    27fc:	fe 82       	std	Y+6, r15	; 0x06
    27fe:	0f 83       	std	Y+7, r16	; 0x07
    2800:	18 87       	std	Y+8, r17	; 0x08
    2802:	8e e1       	ldi	r24, 0x1E	; 30
    2804:	90 e0       	ldi	r25, 0x00	; 0
    2806:	8e 1b       	sub	r24, r30
    2808:	9f 0b       	sbc	r25, r31
    280a:	9c 83       	std	Y+4, r25	; 0x04
    280c:	8b 83       	std	Y+3, r24	; 0x03
    280e:	12 c0       	rjmp	.+36     	; 0x2834 <__floatunsisf+0xe0>
    2810:	30 97       	sbiw	r30, 0x00	; 0
    2812:	81 f0       	breq	.+32     	; 0x2834 <__floatunsisf+0xe0>
    2814:	0e 2e       	mov	r0, r30
    2816:	04 c0       	rjmp	.+8      	; 0x2820 <__floatunsisf+0xcc>
    2818:	ee 0c       	add	r14, r14
    281a:	ff 1c       	adc	r15, r15
    281c:	00 1f       	adc	r16, r16
    281e:	11 1f       	adc	r17, r17
    2820:	0a 94       	dec	r0
    2822:	d2 f7       	brpl	.-12     	; 0x2818 <__floatunsisf+0xc4>
    2824:	ed 82       	std	Y+5, r14	; 0x05
    2826:	fe 82       	std	Y+6, r15	; 0x06
    2828:	0f 83       	std	Y+7, r16	; 0x07
    282a:	18 87       	std	Y+8, r17	; 0x08
    282c:	ce 1a       	sub	r12, r30
    282e:	df 0a       	sbc	r13, r31
    2830:	dc 82       	std	Y+4, r13	; 0x04
    2832:	cb 82       	std	Y+3, r12	; 0x03
    2834:	ce 01       	movw	r24, r28
    2836:	01 96       	adiw	r24, 0x01	; 1
    2838:	0e 94 7c 14 	call	0x28f8	; 0x28f8 <__pack_f>
    283c:	28 96       	adiw	r28, 0x08	; 8
    283e:	e8 e0       	ldi	r30, 0x08	; 8
    2840:	0c 94 a2 16 	jmp	0x2d44	; 0x2d44 <__epilogue_restores__+0x14>

00002844 <__clzsi2>:
    2844:	af 92       	push	r10
    2846:	bf 92       	push	r11
    2848:	cf 92       	push	r12
    284a:	df 92       	push	r13
    284c:	ef 92       	push	r14
    284e:	ff 92       	push	r15
    2850:	0f 93       	push	r16
    2852:	1f 93       	push	r17
    2854:	7b 01       	movw	r14, r22
    2856:	8c 01       	movw	r16, r24
    2858:	80 e0       	ldi	r24, 0x00	; 0
    285a:	e8 16       	cp	r14, r24
    285c:	80 e0       	ldi	r24, 0x00	; 0
    285e:	f8 06       	cpc	r15, r24
    2860:	81 e0       	ldi	r24, 0x01	; 1
    2862:	08 07       	cpc	r16, r24
    2864:	80 e0       	ldi	r24, 0x00	; 0
    2866:	18 07       	cpc	r17, r24
    2868:	58 f4       	brcc	.+22     	; 0x2880 <__clzsi2+0x3c>
    286a:	ef ef       	ldi	r30, 0xFF	; 255
    286c:	ee 16       	cp	r14, r30
    286e:	f1 04       	cpc	r15, r1
    2870:	01 05       	cpc	r16, r1
    2872:	11 05       	cpc	r17, r1
    2874:	09 f0       	breq	.+2      	; 0x2878 <__clzsi2+0x34>
    2876:	90 f4       	brcc	.+36     	; 0x289c <__clzsi2+0x58>
    2878:	80 e0       	ldi	r24, 0x00	; 0
    287a:	90 e0       	ldi	r25, 0x00	; 0
    287c:	dc 01       	movw	r26, r24
    287e:	17 c0       	rjmp	.+46     	; 0x28ae <__clzsi2+0x6a>
    2880:	f0 e0       	ldi	r31, 0x00	; 0
    2882:	ef 16       	cp	r14, r31
    2884:	f0 e0       	ldi	r31, 0x00	; 0
    2886:	ff 06       	cpc	r15, r31
    2888:	f0 e0       	ldi	r31, 0x00	; 0
    288a:	0f 07       	cpc	r16, r31
    288c:	f1 e0       	ldi	r31, 0x01	; 1
    288e:	1f 07       	cpc	r17, r31
    2890:	50 f4       	brcc	.+20     	; 0x28a6 <__clzsi2+0x62>
    2892:	80 e1       	ldi	r24, 0x10	; 16
    2894:	90 e0       	ldi	r25, 0x00	; 0
    2896:	a0 e0       	ldi	r26, 0x00	; 0
    2898:	b0 e0       	ldi	r27, 0x00	; 0
    289a:	09 c0       	rjmp	.+18     	; 0x28ae <__clzsi2+0x6a>
    289c:	88 e0       	ldi	r24, 0x08	; 8
    289e:	90 e0       	ldi	r25, 0x00	; 0
    28a0:	a0 e0       	ldi	r26, 0x00	; 0
    28a2:	b0 e0       	ldi	r27, 0x00	; 0
    28a4:	04 c0       	rjmp	.+8      	; 0x28ae <__clzsi2+0x6a>
    28a6:	88 e1       	ldi	r24, 0x18	; 24
    28a8:	90 e0       	ldi	r25, 0x00	; 0
    28aa:	a0 e0       	ldi	r26, 0x00	; 0
    28ac:	b0 e0       	ldi	r27, 0x00	; 0
    28ae:	20 e2       	ldi	r18, 0x20	; 32
    28b0:	30 e0       	ldi	r19, 0x00	; 0
    28b2:	40 e0       	ldi	r20, 0x00	; 0
    28b4:	50 e0       	ldi	r21, 0x00	; 0
    28b6:	28 1b       	sub	r18, r24
    28b8:	39 0b       	sbc	r19, r25
    28ba:	4a 0b       	sbc	r20, r26
    28bc:	5b 0b       	sbc	r21, r27
    28be:	57 01       	movw	r10, r14
    28c0:	68 01       	movw	r12, r16
    28c2:	04 c0       	rjmp	.+8      	; 0x28cc <__clzsi2+0x88>
    28c4:	d6 94       	lsr	r13
    28c6:	c7 94       	ror	r12
    28c8:	b7 94       	ror	r11
    28ca:	a7 94       	ror	r10
    28cc:	8a 95       	dec	r24
    28ce:	d2 f7       	brpl	.-12     	; 0x28c4 <__clzsi2+0x80>
    28d0:	d6 01       	movw	r26, r12
    28d2:	c5 01       	movw	r24, r10
    28d4:	88 59       	subi	r24, 0x98	; 152
    28d6:	9f 4f       	sbci	r25, 0xFF	; 255
    28d8:	fc 01       	movw	r30, r24
    28da:	80 81       	ld	r24, Z
    28dc:	28 1b       	sub	r18, r24
    28de:	31 09       	sbc	r19, r1
    28e0:	41 09       	sbc	r20, r1
    28e2:	51 09       	sbc	r21, r1
    28e4:	c9 01       	movw	r24, r18
    28e6:	1f 91       	pop	r17
    28e8:	0f 91       	pop	r16
    28ea:	ff 90       	pop	r15
    28ec:	ef 90       	pop	r14
    28ee:	df 90       	pop	r13
    28f0:	cf 90       	pop	r12
    28f2:	bf 90       	pop	r11
    28f4:	af 90       	pop	r10
    28f6:	08 95       	ret

000028f8 <__pack_f>:
    28f8:	ef 92       	push	r14
    28fa:	ff 92       	push	r15
    28fc:	0f 93       	push	r16
    28fe:	1f 93       	push	r17
    2900:	cf 93       	push	r28
    2902:	df 93       	push	r29
    2904:	fc 01       	movw	r30, r24
    2906:	24 81       	ldd	r18, Z+4	; 0x04
    2908:	35 81       	ldd	r19, Z+5	; 0x05
    290a:	46 81       	ldd	r20, Z+6	; 0x06
    290c:	57 81       	ldd	r21, Z+7	; 0x07
    290e:	61 81       	ldd	r22, Z+1	; 0x01
    2910:	80 81       	ld	r24, Z
    2912:	82 30       	cpi	r24, 0x02	; 2
    2914:	20 f4       	brcc	.+8      	; 0x291e <__pack_f+0x26>
    2916:	40 61       	ori	r20, 0x10	; 16
    2918:	ef ef       	ldi	r30, 0xFF	; 255
    291a:	f0 e0       	ldi	r31, 0x00	; 0
    291c:	a3 c0       	rjmp	.+326    	; 0x2a64 <__pack_f+0x16c>
    291e:	84 30       	cpi	r24, 0x04	; 4
    2920:	09 f4       	brne	.+2      	; 0x2924 <__pack_f+0x2c>
    2922:	9b c0       	rjmp	.+310    	; 0x2a5a <__pack_f+0x162>
    2924:	82 30       	cpi	r24, 0x02	; 2
    2926:	09 f4       	brne	.+2      	; 0x292a <__pack_f+0x32>
    2928:	92 c0       	rjmp	.+292    	; 0x2a4e <__pack_f+0x156>
    292a:	21 15       	cp	r18, r1
    292c:	31 05       	cpc	r19, r1
    292e:	41 05       	cpc	r20, r1
    2930:	51 05       	cpc	r21, r1
    2932:	09 f4       	brne	.+2      	; 0x2936 <__pack_f+0x3e>
    2934:	8f c0       	rjmp	.+286    	; 0x2a54 <__pack_f+0x15c>
    2936:	02 80       	ldd	r0, Z+2	; 0x02
    2938:	f3 81       	ldd	r31, Z+3	; 0x03
    293a:	e0 2d       	mov	r30, r0
    293c:	8f ef       	ldi	r24, 0xFF	; 255
    293e:	e2 38       	cpi	r30, 0x82	; 130
    2940:	f8 07       	cpc	r31, r24
    2942:	0c f0       	brlt	.+2      	; 0x2946 <__pack_f+0x4e>
    2944:	5a c0       	rjmp	.+180    	; 0x29fa <__pack_f+0x102>
    2946:	c2 e8       	ldi	r28, 0x82	; 130
    2948:	df ef       	ldi	r29, 0xFF	; 255
    294a:	ce 1b       	sub	r28, r30
    294c:	df 0b       	sbc	r29, r31
    294e:	ca 31       	cpi	r28, 0x1A	; 26
    2950:	d1 05       	cpc	r29, r1
    2952:	6c f5       	brge	.+90     	; 0x29ae <__pack_f+0xb6>
    2954:	79 01       	movw	r14, r18
    2956:	8a 01       	movw	r16, r20
    2958:	0c 2e       	mov	r0, r28
    295a:	04 c0       	rjmp	.+8      	; 0x2964 <__pack_f+0x6c>
    295c:	16 95       	lsr	r17
    295e:	07 95       	ror	r16
    2960:	f7 94       	ror	r15
    2962:	e7 94       	ror	r14
    2964:	0a 94       	dec	r0
    2966:	d2 f7       	brpl	.-12     	; 0x295c <__pack_f+0x64>
    2968:	81 e0       	ldi	r24, 0x01	; 1
    296a:	90 e0       	ldi	r25, 0x00	; 0
    296c:	a0 e0       	ldi	r26, 0x00	; 0
    296e:	b0 e0       	ldi	r27, 0x00	; 0
    2970:	0c 2e       	mov	r0, r28
    2972:	04 c0       	rjmp	.+8      	; 0x297c <__pack_f+0x84>
    2974:	88 0f       	add	r24, r24
    2976:	99 1f       	adc	r25, r25
    2978:	aa 1f       	adc	r26, r26
    297a:	bb 1f       	adc	r27, r27
    297c:	0a 94       	dec	r0
    297e:	d2 f7       	brpl	.-12     	; 0x2974 <__pack_f+0x7c>
    2980:	01 97       	sbiw	r24, 0x01	; 1
    2982:	a1 09       	sbc	r26, r1
    2984:	b1 09       	sbc	r27, r1
    2986:	82 23       	and	r24, r18
    2988:	93 23       	and	r25, r19
    298a:	a4 23       	and	r26, r20
    298c:	b5 23       	and	r27, r21
    298e:	21 e0       	ldi	r18, 0x01	; 1
    2990:	30 e0       	ldi	r19, 0x00	; 0
    2992:	40 e0       	ldi	r20, 0x00	; 0
    2994:	50 e0       	ldi	r21, 0x00	; 0
    2996:	00 97       	sbiw	r24, 0x00	; 0
    2998:	a1 05       	cpc	r26, r1
    299a:	b1 05       	cpc	r27, r1
    299c:	19 f4       	brne	.+6      	; 0x29a4 <__pack_f+0xac>
    299e:	20 e0       	ldi	r18, 0x00	; 0
    29a0:	30 e0       	ldi	r19, 0x00	; 0
    29a2:	a9 01       	movw	r20, r18
    29a4:	2e 29       	or	r18, r14
    29a6:	3f 29       	or	r19, r15
    29a8:	40 2b       	or	r20, r16
    29aa:	51 2b       	or	r21, r17
    29ac:	03 c0       	rjmp	.+6      	; 0x29b4 <__pack_f+0xbc>
    29ae:	20 e0       	ldi	r18, 0x00	; 0
    29b0:	30 e0       	ldi	r19, 0x00	; 0
    29b2:	a9 01       	movw	r20, r18
    29b4:	da 01       	movw	r26, r20
    29b6:	c9 01       	movw	r24, r18
    29b8:	8f 77       	andi	r24, 0x7F	; 127
    29ba:	90 70       	andi	r25, 0x00	; 0
    29bc:	a0 70       	andi	r26, 0x00	; 0
    29be:	b0 70       	andi	r27, 0x00	; 0
    29c0:	80 34       	cpi	r24, 0x40	; 64
    29c2:	91 05       	cpc	r25, r1
    29c4:	a1 05       	cpc	r26, r1
    29c6:	b1 05       	cpc	r27, r1
    29c8:	39 f4       	brne	.+14     	; 0x29d8 <__pack_f+0xe0>
    29ca:	27 ff       	sbrs	r18, 7
    29cc:	09 c0       	rjmp	.+18     	; 0x29e0 <__pack_f+0xe8>
    29ce:	20 5c       	subi	r18, 0xC0	; 192
    29d0:	3f 4f       	sbci	r19, 0xFF	; 255
    29d2:	4f 4f       	sbci	r20, 0xFF	; 255
    29d4:	5f 4f       	sbci	r21, 0xFF	; 255
    29d6:	04 c0       	rjmp	.+8      	; 0x29e0 <__pack_f+0xe8>
    29d8:	21 5c       	subi	r18, 0xC1	; 193
    29da:	3f 4f       	sbci	r19, 0xFF	; 255
    29dc:	4f 4f       	sbci	r20, 0xFF	; 255
    29de:	5f 4f       	sbci	r21, 0xFF	; 255
    29e0:	e1 e0       	ldi	r30, 0x01	; 1
    29e2:	f0 e0       	ldi	r31, 0x00	; 0
    29e4:	20 30       	cpi	r18, 0x00	; 0
    29e6:	80 e0       	ldi	r24, 0x00	; 0
    29e8:	38 07       	cpc	r19, r24
    29ea:	80 e0       	ldi	r24, 0x00	; 0
    29ec:	48 07       	cpc	r20, r24
    29ee:	80 e4       	ldi	r24, 0x40	; 64
    29f0:	58 07       	cpc	r21, r24
    29f2:	28 f5       	brcc	.+74     	; 0x2a3e <__pack_f+0x146>
    29f4:	e0 e0       	ldi	r30, 0x00	; 0
    29f6:	f0 e0       	ldi	r31, 0x00	; 0
    29f8:	22 c0       	rjmp	.+68     	; 0x2a3e <__pack_f+0x146>
    29fa:	e0 38       	cpi	r30, 0x80	; 128
    29fc:	f1 05       	cpc	r31, r1
    29fe:	6c f5       	brge	.+90     	; 0x2a5a <__pack_f+0x162>
    2a00:	e1 58       	subi	r30, 0x81	; 129
    2a02:	ff 4f       	sbci	r31, 0xFF	; 255
    2a04:	da 01       	movw	r26, r20
    2a06:	c9 01       	movw	r24, r18
    2a08:	8f 77       	andi	r24, 0x7F	; 127
    2a0a:	90 70       	andi	r25, 0x00	; 0
    2a0c:	a0 70       	andi	r26, 0x00	; 0
    2a0e:	b0 70       	andi	r27, 0x00	; 0
    2a10:	80 34       	cpi	r24, 0x40	; 64
    2a12:	91 05       	cpc	r25, r1
    2a14:	a1 05       	cpc	r26, r1
    2a16:	b1 05       	cpc	r27, r1
    2a18:	39 f4       	brne	.+14     	; 0x2a28 <__pack_f+0x130>
    2a1a:	27 ff       	sbrs	r18, 7
    2a1c:	09 c0       	rjmp	.+18     	; 0x2a30 <__pack_f+0x138>
    2a1e:	20 5c       	subi	r18, 0xC0	; 192
    2a20:	3f 4f       	sbci	r19, 0xFF	; 255
    2a22:	4f 4f       	sbci	r20, 0xFF	; 255
    2a24:	5f 4f       	sbci	r21, 0xFF	; 255
    2a26:	04 c0       	rjmp	.+8      	; 0x2a30 <__pack_f+0x138>
    2a28:	21 5c       	subi	r18, 0xC1	; 193
    2a2a:	3f 4f       	sbci	r19, 0xFF	; 255
    2a2c:	4f 4f       	sbci	r20, 0xFF	; 255
    2a2e:	5f 4f       	sbci	r21, 0xFF	; 255
    2a30:	57 ff       	sbrs	r21, 7
    2a32:	05 c0       	rjmp	.+10     	; 0x2a3e <__pack_f+0x146>
    2a34:	56 95       	lsr	r21
    2a36:	47 95       	ror	r20
    2a38:	37 95       	ror	r19
    2a3a:	27 95       	ror	r18
    2a3c:	31 96       	adiw	r30, 0x01	; 1
    2a3e:	87 e0       	ldi	r24, 0x07	; 7
    2a40:	56 95       	lsr	r21
    2a42:	47 95       	ror	r20
    2a44:	37 95       	ror	r19
    2a46:	27 95       	ror	r18
    2a48:	8a 95       	dec	r24
    2a4a:	d1 f7       	brne	.-12     	; 0x2a40 <__pack_f+0x148>
    2a4c:	0b c0       	rjmp	.+22     	; 0x2a64 <__pack_f+0x16c>
    2a4e:	e0 e0       	ldi	r30, 0x00	; 0
    2a50:	f0 e0       	ldi	r31, 0x00	; 0
    2a52:	05 c0       	rjmp	.+10     	; 0x2a5e <__pack_f+0x166>
    2a54:	e0 e0       	ldi	r30, 0x00	; 0
    2a56:	f0 e0       	ldi	r31, 0x00	; 0
    2a58:	05 c0       	rjmp	.+10     	; 0x2a64 <__pack_f+0x16c>
    2a5a:	ef ef       	ldi	r30, 0xFF	; 255
    2a5c:	f0 e0       	ldi	r31, 0x00	; 0
    2a5e:	20 e0       	ldi	r18, 0x00	; 0
    2a60:	30 e0       	ldi	r19, 0x00	; 0
    2a62:	a9 01       	movw	r20, r18
    2a64:	8e 2f       	mov	r24, r30
    2a66:	87 95       	ror	r24
    2a68:	88 27       	eor	r24, r24
    2a6a:	87 95       	ror	r24
    2a6c:	94 2f       	mov	r25, r20
    2a6e:	9f 77       	andi	r25, 0x7F	; 127
    2a70:	67 95       	ror	r22
    2a72:	66 27       	eor	r22, r22
    2a74:	67 95       	ror	r22
    2a76:	e6 95       	lsr	r30
    2a78:	e2 2e       	mov	r14, r18
    2a7a:	a9 2f       	mov	r26, r25
    2a7c:	a8 2b       	or	r26, r24
    2a7e:	fe 2f       	mov	r31, r30
    2a80:	f6 2b       	or	r31, r22
    2a82:	62 2f       	mov	r22, r18
    2a84:	73 2f       	mov	r23, r19
    2a86:	8a 2f       	mov	r24, r26
    2a88:	9f 2f       	mov	r25, r31
    2a8a:	cd b7       	in	r28, 0x3d	; 61
    2a8c:	de b7       	in	r29, 0x3e	; 62
    2a8e:	e6 e0       	ldi	r30, 0x06	; 6
    2a90:	0c 94 a4 16 	jmp	0x2d48	; 0x2d48 <__epilogue_restores__+0x18>

00002a94 <__unpack_f>:
    2a94:	dc 01       	movw	r26, r24
    2a96:	fb 01       	movw	r30, r22
    2a98:	2c 91       	ld	r18, X
    2a9a:	11 96       	adiw	r26, 0x01	; 1
    2a9c:	3c 91       	ld	r19, X
    2a9e:	11 97       	sbiw	r26, 0x01	; 1
    2aa0:	12 96       	adiw	r26, 0x02	; 2
    2aa2:	8c 91       	ld	r24, X
    2aa4:	12 97       	sbiw	r26, 0x02	; 2
    2aa6:	48 2f       	mov	r20, r24
    2aa8:	4f 77       	andi	r20, 0x7F	; 127
    2aaa:	50 e0       	ldi	r21, 0x00	; 0
    2aac:	98 2f       	mov	r25, r24
    2aae:	99 1f       	adc	r25, r25
    2ab0:	99 27       	eor	r25, r25
    2ab2:	99 1f       	adc	r25, r25
    2ab4:	13 96       	adiw	r26, 0x03	; 3
    2ab6:	6c 91       	ld	r22, X
    2ab8:	13 97       	sbiw	r26, 0x03	; 3
    2aba:	86 2f       	mov	r24, r22
    2abc:	88 0f       	add	r24, r24
    2abe:	89 2b       	or	r24, r25
    2ac0:	90 e0       	ldi	r25, 0x00	; 0
    2ac2:	66 1f       	adc	r22, r22
    2ac4:	66 27       	eor	r22, r22
    2ac6:	66 1f       	adc	r22, r22
    2ac8:	61 83       	std	Z+1, r22	; 0x01
    2aca:	00 97       	sbiw	r24, 0x00	; 0
    2acc:	39 f5       	brne	.+78     	; 0x2b1c <__unpack_f+0x88>
    2ace:	21 15       	cp	r18, r1
    2ad0:	31 05       	cpc	r19, r1
    2ad2:	41 05       	cpc	r20, r1
    2ad4:	51 05       	cpc	r21, r1
    2ad6:	11 f4       	brne	.+4      	; 0x2adc <__unpack_f+0x48>
    2ad8:	82 e0       	ldi	r24, 0x02	; 2
    2ada:	29 c0       	rjmp	.+82     	; 0x2b2e <__unpack_f+0x9a>
    2adc:	82 e8       	ldi	r24, 0x82	; 130
    2ade:	9f ef       	ldi	r25, 0xFF	; 255
    2ae0:	93 83       	std	Z+3, r25	; 0x03
    2ae2:	82 83       	std	Z+2, r24	; 0x02
    2ae4:	67 e0       	ldi	r22, 0x07	; 7
    2ae6:	22 0f       	add	r18, r18
    2ae8:	33 1f       	adc	r19, r19
    2aea:	44 1f       	adc	r20, r20
    2aec:	55 1f       	adc	r21, r21
    2aee:	6a 95       	dec	r22
    2af0:	d1 f7       	brne	.-12     	; 0x2ae6 <__unpack_f+0x52>
    2af2:	83 e0       	ldi	r24, 0x03	; 3
    2af4:	80 83       	st	Z, r24
    2af6:	09 c0       	rjmp	.+18     	; 0x2b0a <__unpack_f+0x76>
    2af8:	22 0f       	add	r18, r18
    2afa:	33 1f       	adc	r19, r19
    2afc:	44 1f       	adc	r20, r20
    2afe:	55 1f       	adc	r21, r21
    2b00:	82 81       	ldd	r24, Z+2	; 0x02
    2b02:	93 81       	ldd	r25, Z+3	; 0x03
    2b04:	01 97       	sbiw	r24, 0x01	; 1
    2b06:	93 83       	std	Z+3, r25	; 0x03
    2b08:	82 83       	std	Z+2, r24	; 0x02
    2b0a:	20 30       	cpi	r18, 0x00	; 0
    2b0c:	80 e0       	ldi	r24, 0x00	; 0
    2b0e:	38 07       	cpc	r19, r24
    2b10:	80 e0       	ldi	r24, 0x00	; 0
    2b12:	48 07       	cpc	r20, r24
    2b14:	80 e4       	ldi	r24, 0x40	; 64
    2b16:	58 07       	cpc	r21, r24
    2b18:	78 f3       	brcs	.-34     	; 0x2af8 <__unpack_f+0x64>
    2b1a:	20 c0       	rjmp	.+64     	; 0x2b5c <__unpack_f+0xc8>
    2b1c:	8f 3f       	cpi	r24, 0xFF	; 255
    2b1e:	91 05       	cpc	r25, r1
    2b20:	79 f4       	brne	.+30     	; 0x2b40 <__unpack_f+0xac>
    2b22:	21 15       	cp	r18, r1
    2b24:	31 05       	cpc	r19, r1
    2b26:	41 05       	cpc	r20, r1
    2b28:	51 05       	cpc	r21, r1
    2b2a:	19 f4       	brne	.+6      	; 0x2b32 <__unpack_f+0x9e>
    2b2c:	84 e0       	ldi	r24, 0x04	; 4
    2b2e:	80 83       	st	Z, r24
    2b30:	08 95       	ret
    2b32:	44 ff       	sbrs	r20, 4
    2b34:	03 c0       	rjmp	.+6      	; 0x2b3c <__unpack_f+0xa8>
    2b36:	81 e0       	ldi	r24, 0x01	; 1
    2b38:	80 83       	st	Z, r24
    2b3a:	10 c0       	rjmp	.+32     	; 0x2b5c <__unpack_f+0xc8>
    2b3c:	10 82       	st	Z, r1
    2b3e:	0e c0       	rjmp	.+28     	; 0x2b5c <__unpack_f+0xc8>
    2b40:	8f 57       	subi	r24, 0x7F	; 127
    2b42:	90 40       	sbci	r25, 0x00	; 0
    2b44:	93 83       	std	Z+3, r25	; 0x03
    2b46:	82 83       	std	Z+2, r24	; 0x02
    2b48:	83 e0       	ldi	r24, 0x03	; 3
    2b4a:	80 83       	st	Z, r24
    2b4c:	87 e0       	ldi	r24, 0x07	; 7
    2b4e:	22 0f       	add	r18, r18
    2b50:	33 1f       	adc	r19, r19
    2b52:	44 1f       	adc	r20, r20
    2b54:	55 1f       	adc	r21, r21
    2b56:	8a 95       	dec	r24
    2b58:	d1 f7       	brne	.-12     	; 0x2b4e <__unpack_f+0xba>
    2b5a:	50 64       	ori	r21, 0x40	; 64
    2b5c:	24 83       	std	Z+4, r18	; 0x04
    2b5e:	35 83       	std	Z+5, r19	; 0x05
    2b60:	46 83       	std	Z+6, r20	; 0x06
    2b62:	57 83       	std	Z+7, r21	; 0x07
    2b64:	08 95       	ret

00002b66 <__fpcmp_parts_f>:
    2b66:	fc 01       	movw	r30, r24
    2b68:	db 01       	movw	r26, r22
    2b6a:	90 81       	ld	r25, Z
    2b6c:	92 30       	cpi	r25, 0x02	; 2
    2b6e:	08 f4       	brcc	.+2      	; 0x2b72 <__fpcmp_parts_f+0xc>
    2b70:	49 c0       	rjmp	.+146    	; 0x2c04 <__fpcmp_parts_f+0x9e>
    2b72:	8c 91       	ld	r24, X
    2b74:	82 30       	cpi	r24, 0x02	; 2
    2b76:	08 f4       	brcc	.+2      	; 0x2b7a <__fpcmp_parts_f+0x14>
    2b78:	45 c0       	rjmp	.+138    	; 0x2c04 <__fpcmp_parts_f+0x9e>
    2b7a:	94 30       	cpi	r25, 0x04	; 4
    2b7c:	51 f4       	brne	.+20     	; 0x2b92 <__fpcmp_parts_f+0x2c>
    2b7e:	61 81       	ldd	r22, Z+1	; 0x01
    2b80:	84 30       	cpi	r24, 0x04	; 4
    2b82:	b1 f5       	brne	.+108    	; 0x2bf0 <__fpcmp_parts_f+0x8a>
    2b84:	11 96       	adiw	r26, 0x01	; 1
    2b86:	2c 91       	ld	r18, X
    2b88:	11 97       	sbiw	r26, 0x01	; 1
    2b8a:	30 e0       	ldi	r19, 0x00	; 0
    2b8c:	26 1b       	sub	r18, r22
    2b8e:	31 09       	sbc	r19, r1
    2b90:	41 c0       	rjmp	.+130    	; 0x2c14 <__fpcmp_parts_f+0xae>
    2b92:	84 30       	cpi	r24, 0x04	; 4
    2b94:	21 f0       	breq	.+8      	; 0x2b9e <__fpcmp_parts_f+0x38>
    2b96:	92 30       	cpi	r25, 0x02	; 2
    2b98:	41 f4       	brne	.+16     	; 0x2baa <__fpcmp_parts_f+0x44>
    2b9a:	82 30       	cpi	r24, 0x02	; 2
    2b9c:	b1 f1       	breq	.+108    	; 0x2c0a <__fpcmp_parts_f+0xa4>
    2b9e:	11 96       	adiw	r26, 0x01	; 1
    2ba0:	8c 91       	ld	r24, X
    2ba2:	11 97       	sbiw	r26, 0x01	; 1
    2ba4:	88 23       	and	r24, r24
    2ba6:	a1 f1       	breq	.+104    	; 0x2c10 <__fpcmp_parts_f+0xaa>
    2ba8:	2d c0       	rjmp	.+90     	; 0x2c04 <__fpcmp_parts_f+0x9e>
    2baa:	61 81       	ldd	r22, Z+1	; 0x01
    2bac:	82 30       	cpi	r24, 0x02	; 2
    2bae:	01 f1       	breq	.+64     	; 0x2bf0 <__fpcmp_parts_f+0x8a>
    2bb0:	11 96       	adiw	r26, 0x01	; 1
    2bb2:	8c 91       	ld	r24, X
    2bb4:	11 97       	sbiw	r26, 0x01	; 1
    2bb6:	68 17       	cp	r22, r24
    2bb8:	d9 f4       	brne	.+54     	; 0x2bf0 <__fpcmp_parts_f+0x8a>
    2bba:	22 81       	ldd	r18, Z+2	; 0x02
    2bbc:	33 81       	ldd	r19, Z+3	; 0x03
    2bbe:	12 96       	adiw	r26, 0x02	; 2
    2bc0:	8d 91       	ld	r24, X+
    2bc2:	9c 91       	ld	r25, X
    2bc4:	13 97       	sbiw	r26, 0x03	; 3
    2bc6:	82 17       	cp	r24, r18
    2bc8:	93 07       	cpc	r25, r19
    2bca:	94 f0       	brlt	.+36     	; 0x2bf0 <__fpcmp_parts_f+0x8a>
    2bcc:	28 17       	cp	r18, r24
    2bce:	39 07       	cpc	r19, r25
    2bd0:	bc f0       	brlt	.+46     	; 0x2c00 <__fpcmp_parts_f+0x9a>
    2bd2:	24 81       	ldd	r18, Z+4	; 0x04
    2bd4:	35 81       	ldd	r19, Z+5	; 0x05
    2bd6:	46 81       	ldd	r20, Z+6	; 0x06
    2bd8:	57 81       	ldd	r21, Z+7	; 0x07
    2bda:	14 96       	adiw	r26, 0x04	; 4
    2bdc:	8d 91       	ld	r24, X+
    2bde:	9d 91       	ld	r25, X+
    2be0:	0d 90       	ld	r0, X+
    2be2:	bc 91       	ld	r27, X
    2be4:	a0 2d       	mov	r26, r0
    2be6:	82 17       	cp	r24, r18
    2be8:	93 07       	cpc	r25, r19
    2bea:	a4 07       	cpc	r26, r20
    2bec:	b5 07       	cpc	r27, r21
    2bee:	18 f4       	brcc	.+6      	; 0x2bf6 <__fpcmp_parts_f+0x90>
    2bf0:	66 23       	and	r22, r22
    2bf2:	41 f0       	breq	.+16     	; 0x2c04 <__fpcmp_parts_f+0x9e>
    2bf4:	0d c0       	rjmp	.+26     	; 0x2c10 <__fpcmp_parts_f+0xaa>
    2bf6:	28 17       	cp	r18, r24
    2bf8:	39 07       	cpc	r19, r25
    2bfa:	4a 07       	cpc	r20, r26
    2bfc:	5b 07       	cpc	r21, r27
    2bfe:	28 f4       	brcc	.+10     	; 0x2c0a <__fpcmp_parts_f+0xa4>
    2c00:	66 23       	and	r22, r22
    2c02:	31 f0       	breq	.+12     	; 0x2c10 <__fpcmp_parts_f+0xaa>
    2c04:	21 e0       	ldi	r18, 0x01	; 1
    2c06:	30 e0       	ldi	r19, 0x00	; 0
    2c08:	05 c0       	rjmp	.+10     	; 0x2c14 <__fpcmp_parts_f+0xae>
    2c0a:	20 e0       	ldi	r18, 0x00	; 0
    2c0c:	30 e0       	ldi	r19, 0x00	; 0
    2c0e:	02 c0       	rjmp	.+4      	; 0x2c14 <__fpcmp_parts_f+0xae>
    2c10:	2f ef       	ldi	r18, 0xFF	; 255
    2c12:	3f ef       	ldi	r19, 0xFF	; 255
    2c14:	c9 01       	movw	r24, r18
    2c16:	08 95       	ret

00002c18 <__mulsi3>:
    2c18:	62 9f       	mul	r22, r18
    2c1a:	d0 01       	movw	r26, r0
    2c1c:	73 9f       	mul	r23, r19
    2c1e:	f0 01       	movw	r30, r0
    2c20:	82 9f       	mul	r24, r18
    2c22:	e0 0d       	add	r30, r0
    2c24:	f1 1d       	adc	r31, r1
    2c26:	64 9f       	mul	r22, r20
    2c28:	e0 0d       	add	r30, r0
    2c2a:	f1 1d       	adc	r31, r1
    2c2c:	92 9f       	mul	r25, r18
    2c2e:	f0 0d       	add	r31, r0
    2c30:	83 9f       	mul	r24, r19
    2c32:	f0 0d       	add	r31, r0
    2c34:	74 9f       	mul	r23, r20
    2c36:	f0 0d       	add	r31, r0
    2c38:	65 9f       	mul	r22, r21
    2c3a:	f0 0d       	add	r31, r0
    2c3c:	99 27       	eor	r25, r25
    2c3e:	72 9f       	mul	r23, r18
    2c40:	b0 0d       	add	r27, r0
    2c42:	e1 1d       	adc	r30, r1
    2c44:	f9 1f       	adc	r31, r25
    2c46:	63 9f       	mul	r22, r19
    2c48:	b0 0d       	add	r27, r0
    2c4a:	e1 1d       	adc	r30, r1
    2c4c:	f9 1f       	adc	r31, r25
    2c4e:	bd 01       	movw	r22, r26
    2c50:	cf 01       	movw	r24, r30
    2c52:	11 24       	eor	r1, r1
    2c54:	08 95       	ret

00002c56 <__udivmodhi4>:
    2c56:	aa 1b       	sub	r26, r26
    2c58:	bb 1b       	sub	r27, r27
    2c5a:	51 e1       	ldi	r21, 0x11	; 17
    2c5c:	07 c0       	rjmp	.+14     	; 0x2c6c <__udivmodhi4_ep>

00002c5e <__udivmodhi4_loop>:
    2c5e:	aa 1f       	adc	r26, r26
    2c60:	bb 1f       	adc	r27, r27
    2c62:	a6 17       	cp	r26, r22
    2c64:	b7 07       	cpc	r27, r23
    2c66:	10 f0       	brcs	.+4      	; 0x2c6c <__udivmodhi4_ep>
    2c68:	a6 1b       	sub	r26, r22
    2c6a:	b7 0b       	sbc	r27, r23

00002c6c <__udivmodhi4_ep>:
    2c6c:	88 1f       	adc	r24, r24
    2c6e:	99 1f       	adc	r25, r25
    2c70:	5a 95       	dec	r21
    2c72:	a9 f7       	brne	.-22     	; 0x2c5e <__udivmodhi4_loop>
    2c74:	80 95       	com	r24
    2c76:	90 95       	com	r25
    2c78:	bc 01       	movw	r22, r24
    2c7a:	cd 01       	movw	r24, r26
    2c7c:	08 95       	ret

00002c7e <__udivmodsi4>:
    2c7e:	a1 e2       	ldi	r26, 0x21	; 33
    2c80:	1a 2e       	mov	r1, r26
    2c82:	aa 1b       	sub	r26, r26
    2c84:	bb 1b       	sub	r27, r27
    2c86:	fd 01       	movw	r30, r26
    2c88:	0d c0       	rjmp	.+26     	; 0x2ca4 <__udivmodsi4_ep>

00002c8a <__udivmodsi4_loop>:
    2c8a:	aa 1f       	adc	r26, r26
    2c8c:	bb 1f       	adc	r27, r27
    2c8e:	ee 1f       	adc	r30, r30
    2c90:	ff 1f       	adc	r31, r31
    2c92:	a2 17       	cp	r26, r18
    2c94:	b3 07       	cpc	r27, r19
    2c96:	e4 07       	cpc	r30, r20
    2c98:	f5 07       	cpc	r31, r21
    2c9a:	20 f0       	brcs	.+8      	; 0x2ca4 <__udivmodsi4_ep>
    2c9c:	a2 1b       	sub	r26, r18
    2c9e:	b3 0b       	sbc	r27, r19
    2ca0:	e4 0b       	sbc	r30, r20
    2ca2:	f5 0b       	sbc	r31, r21

00002ca4 <__udivmodsi4_ep>:
    2ca4:	66 1f       	adc	r22, r22
    2ca6:	77 1f       	adc	r23, r23
    2ca8:	88 1f       	adc	r24, r24
    2caa:	99 1f       	adc	r25, r25
    2cac:	1a 94       	dec	r1
    2cae:	69 f7       	brne	.-38     	; 0x2c8a <__udivmodsi4_loop>
    2cb0:	60 95       	com	r22
    2cb2:	70 95       	com	r23
    2cb4:	80 95       	com	r24
    2cb6:	90 95       	com	r25
    2cb8:	9b 01       	movw	r18, r22
    2cba:	ac 01       	movw	r20, r24
    2cbc:	bd 01       	movw	r22, r26
    2cbe:	cf 01       	movw	r24, r30
    2cc0:	08 95       	ret

00002cc2 <__divmodsi4>:
    2cc2:	97 fb       	bst	r25, 7
    2cc4:	09 2e       	mov	r0, r25
    2cc6:	05 26       	eor	r0, r21
    2cc8:	0e d0       	rcall	.+28     	; 0x2ce6 <__divmodsi4_neg1>
    2cca:	57 fd       	sbrc	r21, 7
    2ccc:	04 d0       	rcall	.+8      	; 0x2cd6 <__divmodsi4_neg2>
    2cce:	d7 df       	rcall	.-82     	; 0x2c7e <__udivmodsi4>
    2cd0:	0a d0       	rcall	.+20     	; 0x2ce6 <__divmodsi4_neg1>
    2cd2:	00 1c       	adc	r0, r0
    2cd4:	38 f4       	brcc	.+14     	; 0x2ce4 <__divmodsi4_exit>

00002cd6 <__divmodsi4_neg2>:
    2cd6:	50 95       	com	r21
    2cd8:	40 95       	com	r20
    2cda:	30 95       	com	r19
    2cdc:	21 95       	neg	r18
    2cde:	3f 4f       	sbci	r19, 0xFF	; 255
    2ce0:	4f 4f       	sbci	r20, 0xFF	; 255
    2ce2:	5f 4f       	sbci	r21, 0xFF	; 255

00002ce4 <__divmodsi4_exit>:
    2ce4:	08 95       	ret

00002ce6 <__divmodsi4_neg1>:
    2ce6:	f6 f7       	brtc	.-4      	; 0x2ce4 <__divmodsi4_exit>
    2ce8:	90 95       	com	r25
    2cea:	80 95       	com	r24
    2cec:	70 95       	com	r23
    2cee:	61 95       	neg	r22
    2cf0:	7f 4f       	sbci	r23, 0xFF	; 255
    2cf2:	8f 4f       	sbci	r24, 0xFF	; 255
    2cf4:	9f 4f       	sbci	r25, 0xFF	; 255
    2cf6:	08 95       	ret

00002cf8 <__prologue_saves__>:
    2cf8:	2f 92       	push	r2
    2cfa:	3f 92       	push	r3
    2cfc:	4f 92       	push	r4
    2cfe:	5f 92       	push	r5
    2d00:	6f 92       	push	r6
    2d02:	7f 92       	push	r7
    2d04:	8f 92       	push	r8
    2d06:	9f 92       	push	r9
    2d08:	af 92       	push	r10
    2d0a:	bf 92       	push	r11
    2d0c:	cf 92       	push	r12
    2d0e:	df 92       	push	r13
    2d10:	ef 92       	push	r14
    2d12:	ff 92       	push	r15
    2d14:	0f 93       	push	r16
    2d16:	1f 93       	push	r17
    2d18:	cf 93       	push	r28
    2d1a:	df 93       	push	r29
    2d1c:	cd b7       	in	r28, 0x3d	; 61
    2d1e:	de b7       	in	r29, 0x3e	; 62
    2d20:	ca 1b       	sub	r28, r26
    2d22:	db 0b       	sbc	r29, r27
    2d24:	0f b6       	in	r0, 0x3f	; 63
    2d26:	f8 94       	cli
    2d28:	de bf       	out	0x3e, r29	; 62
    2d2a:	0f be       	out	0x3f, r0	; 63
    2d2c:	cd bf       	out	0x3d, r28	; 61
    2d2e:	09 94       	ijmp

00002d30 <__epilogue_restores__>:
    2d30:	2a 88       	ldd	r2, Y+18	; 0x12
    2d32:	39 88       	ldd	r3, Y+17	; 0x11
    2d34:	48 88       	ldd	r4, Y+16	; 0x10
    2d36:	5f 84       	ldd	r5, Y+15	; 0x0f
    2d38:	6e 84       	ldd	r6, Y+14	; 0x0e
    2d3a:	7d 84       	ldd	r7, Y+13	; 0x0d
    2d3c:	8c 84       	ldd	r8, Y+12	; 0x0c
    2d3e:	9b 84       	ldd	r9, Y+11	; 0x0b
    2d40:	aa 84       	ldd	r10, Y+10	; 0x0a
    2d42:	b9 84       	ldd	r11, Y+9	; 0x09
    2d44:	c8 84       	ldd	r12, Y+8	; 0x08
    2d46:	df 80       	ldd	r13, Y+7	; 0x07
    2d48:	ee 80       	ldd	r14, Y+6	; 0x06
    2d4a:	fd 80       	ldd	r15, Y+5	; 0x05
    2d4c:	0c 81       	ldd	r16, Y+4	; 0x04
    2d4e:	1b 81       	ldd	r17, Y+3	; 0x03
    2d50:	aa 81       	ldd	r26, Y+2	; 0x02
    2d52:	b9 81       	ldd	r27, Y+1	; 0x01
    2d54:	ce 0f       	add	r28, r30
    2d56:	d1 1d       	adc	r29, r1
    2d58:	0f b6       	in	r0, 0x3f	; 63
    2d5a:	f8 94       	cli
    2d5c:	de bf       	out	0x3e, r29	; 62
    2d5e:	0f be       	out	0x3f, r0	; 63
    2d60:	cd bf       	out	0x3d, r28	; 61
    2d62:	ed 01       	movw	r28, r26
    2d64:	08 95       	ret

00002d66 <itoa>:
    2d66:	fb 01       	movw	r30, r22
    2d68:	9f 01       	movw	r18, r30
    2d6a:	e8 94       	clt
    2d6c:	42 30       	cpi	r20, 0x02	; 2
    2d6e:	c4 f0       	brlt	.+48     	; 0x2da0 <itoa+0x3a>
    2d70:	45 32       	cpi	r20, 0x25	; 37
    2d72:	b4 f4       	brge	.+44     	; 0x2da0 <itoa+0x3a>
    2d74:	4a 30       	cpi	r20, 0x0A	; 10
    2d76:	29 f4       	brne	.+10     	; 0x2d82 <itoa+0x1c>
    2d78:	97 fb       	bst	r25, 7
    2d7a:	1e f4       	brtc	.+6      	; 0x2d82 <itoa+0x1c>
    2d7c:	90 95       	com	r25
    2d7e:	81 95       	neg	r24
    2d80:	9f 4f       	sbci	r25, 0xFF	; 255
    2d82:	64 2f       	mov	r22, r20
    2d84:	77 27       	eor	r23, r23
    2d86:	0e 94 2b 16 	call	0x2c56	; 0x2c56 <__udivmodhi4>
    2d8a:	80 5d       	subi	r24, 0xD0	; 208
    2d8c:	8a 33       	cpi	r24, 0x3A	; 58
    2d8e:	0c f0       	brlt	.+2      	; 0x2d92 <itoa+0x2c>
    2d90:	89 5d       	subi	r24, 0xD9	; 217
    2d92:	81 93       	st	Z+, r24
    2d94:	cb 01       	movw	r24, r22
    2d96:	00 97       	sbiw	r24, 0x00	; 0
    2d98:	a1 f7       	brne	.-24     	; 0x2d82 <itoa+0x1c>
    2d9a:	16 f4       	brtc	.+4      	; 0x2da0 <itoa+0x3a>
    2d9c:	5d e2       	ldi	r21, 0x2D	; 45
    2d9e:	51 93       	st	Z+, r21
    2da0:	10 82       	st	Z, r1
    2da2:	c9 01       	movw	r24, r18
    2da4:	0c 94 8a 17 	jmp	0x2f14	; 0x2f14 <strrev>

00002da8 <ltoa>:
    2da8:	fa 01       	movw	r30, r20
    2daa:	cf 93       	push	r28
    2dac:	ff 93       	push	r31
    2dae:	ef 93       	push	r30
    2db0:	22 30       	cpi	r18, 0x02	; 2
    2db2:	44 f1       	brlt	.+80     	; 0x2e04 <ltoa+0x5c>
    2db4:	25 32       	cpi	r18, 0x25	; 37
    2db6:	34 f5       	brge	.+76     	; 0x2e04 <ltoa+0x5c>
    2db8:	c2 2f       	mov	r28, r18
    2dba:	e8 94       	clt
    2dbc:	ca 30       	cpi	r28, 0x0A	; 10
    2dbe:	49 f4       	brne	.+18     	; 0x2dd2 <ltoa+0x2a>
    2dc0:	97 fb       	bst	r25, 7
    2dc2:	3e f4       	brtc	.+14     	; 0x2dd2 <ltoa+0x2a>
    2dc4:	90 95       	com	r25
    2dc6:	80 95       	com	r24
    2dc8:	70 95       	com	r23
    2dca:	61 95       	neg	r22
    2dcc:	7f 4f       	sbci	r23, 0xFF	; 255
    2dce:	8f 4f       	sbci	r24, 0xFF	; 255
    2dd0:	9f 4f       	sbci	r25, 0xFF	; 255
    2dd2:	2c 2f       	mov	r18, r28
    2dd4:	33 27       	eor	r19, r19
    2dd6:	44 27       	eor	r20, r20
    2dd8:	55 27       	eor	r21, r21
    2dda:	ff 93       	push	r31
    2ddc:	ef 93       	push	r30
    2dde:	0e 94 3f 16 	call	0x2c7e	; 0x2c7e <__udivmodsi4>
    2de2:	ef 91       	pop	r30
    2de4:	ff 91       	pop	r31
    2de6:	60 5d       	subi	r22, 0xD0	; 208
    2de8:	6a 33       	cpi	r22, 0x3A	; 58
    2dea:	0c f0       	brlt	.+2      	; 0x2dee <ltoa+0x46>
    2dec:	69 5d       	subi	r22, 0xD9	; 217
    2dee:	61 93       	st	Z+, r22
    2df0:	b9 01       	movw	r22, r18
    2df2:	ca 01       	movw	r24, r20
    2df4:	60 50       	subi	r22, 0x00	; 0
    2df6:	70 40       	sbci	r23, 0x00	; 0
    2df8:	80 40       	sbci	r24, 0x00	; 0
    2dfa:	90 40       	sbci	r25, 0x00	; 0
    2dfc:	51 f7       	brne	.-44     	; 0x2dd2 <ltoa+0x2a>
    2dfe:	16 f4       	brtc	.+4      	; 0x2e04 <ltoa+0x5c>
    2e00:	cd e2       	ldi	r28, 0x2D	; 45
    2e02:	c1 93       	st	Z+, r28
    2e04:	10 82       	st	Z, r1
    2e06:	8f 91       	pop	r24
    2e08:	9f 91       	pop	r25
    2e0a:	cf 91       	pop	r28
    2e0c:	0c 94 8a 17 	jmp	0x2f14	; 0x2f14 <strrev>

00002e10 <utoa>:
    2e10:	fb 01       	movw	r30, r22
    2e12:	9f 01       	movw	r18, r30
    2e14:	42 30       	cpi	r20, 0x02	; 2
    2e16:	74 f0       	brlt	.+28     	; 0x2e34 <utoa+0x24>
    2e18:	45 32       	cpi	r20, 0x25	; 37
    2e1a:	64 f4       	brge	.+24     	; 0x2e34 <utoa+0x24>
    2e1c:	64 2f       	mov	r22, r20
    2e1e:	77 27       	eor	r23, r23
    2e20:	0e 94 2b 16 	call	0x2c56	; 0x2c56 <__udivmodhi4>
    2e24:	80 5d       	subi	r24, 0xD0	; 208
    2e26:	8a 33       	cpi	r24, 0x3A	; 58
    2e28:	0c f0       	brlt	.+2      	; 0x2e2c <utoa+0x1c>
    2e2a:	89 5d       	subi	r24, 0xD9	; 217
    2e2c:	81 93       	st	Z+, r24
    2e2e:	cb 01       	movw	r24, r22
    2e30:	00 97       	sbiw	r24, 0x00	; 0
    2e32:	a1 f7       	brne	.-24     	; 0x2e1c <utoa+0xc>
    2e34:	10 82       	st	Z, r1
    2e36:	c9 01       	movw	r24, r18
    2e38:	0c 94 8a 17 	jmp	0x2f14	; 0x2f14 <strrev>

00002e3c <pow>:
    2e3c:	fa 01       	movw	r30, r20
    2e3e:	ee 0f       	add	r30, r30
    2e40:	ff 1f       	adc	r31, r31
    2e42:	30 96       	adiw	r30, 0x00	; 0
    2e44:	21 05       	cpc	r18, r1
    2e46:	31 05       	cpc	r19, r1
    2e48:	99 f1       	breq	.+102    	; 0x2eb0 <pow+0x74>
    2e4a:	61 15       	cp	r22, r1
    2e4c:	71 05       	cpc	r23, r1
    2e4e:	61 f4       	brne	.+24     	; 0x2e68 <pow+0x2c>
    2e50:	80 38       	cpi	r24, 0x80	; 128
    2e52:	bf e3       	ldi	r27, 0x3F	; 63
    2e54:	9b 07       	cpc	r25, r27
    2e56:	49 f1       	breq	.+82     	; 0x2eaa <pow+0x6e>
    2e58:	68 94       	set
    2e5a:	90 38       	cpi	r25, 0x80	; 128
    2e5c:	81 05       	cpc	r24, r1
    2e5e:	61 f0       	breq	.+24     	; 0x2e78 <pow+0x3c>
    2e60:	80 38       	cpi	r24, 0x80	; 128
    2e62:	bf ef       	ldi	r27, 0xFF	; 255
    2e64:	9b 07       	cpc	r25, r27
    2e66:	41 f0       	breq	.+16     	; 0x2e78 <pow+0x3c>
    2e68:	99 23       	and	r25, r25
    2e6a:	42 f5       	brpl	.+80     	; 0x2ebc <pow+0x80>
    2e6c:	ff 3f       	cpi	r31, 0xFF	; 255
    2e6e:	e1 05       	cpc	r30, r1
    2e70:	31 05       	cpc	r19, r1
    2e72:	21 05       	cpc	r18, r1
    2e74:	11 f1       	breq	.+68     	; 0x2eba <pow+0x7e>
    2e76:	e8 94       	clt
    2e78:	08 94       	sec
    2e7a:	e7 95       	ror	r30
    2e7c:	d9 01       	movw	r26, r18
    2e7e:	aa 23       	and	r26, r26
    2e80:	29 f4       	brne	.+10     	; 0x2e8c <pow+0x50>
    2e82:	ab 2f       	mov	r26, r27
    2e84:	be 2f       	mov	r27, r30
    2e86:	f8 5f       	subi	r31, 0xF8	; 248
    2e88:	d0 f3       	brcs	.-12     	; 0x2e7e <pow+0x42>
    2e8a:	10 c0       	rjmp	.+32     	; 0x2eac <pow+0x70>
    2e8c:	ff 5f       	subi	r31, 0xFF	; 255
    2e8e:	70 f4       	brcc	.+28     	; 0x2eac <pow+0x70>
    2e90:	a6 95       	lsr	r26
    2e92:	e0 f7       	brcc	.-8      	; 0x2e8c <pow+0x50>
    2e94:	f7 39       	cpi	r31, 0x97	; 151
    2e96:	50 f0       	brcs	.+20     	; 0x2eac <pow+0x70>
    2e98:	19 f0       	breq	.+6      	; 0x2ea0 <pow+0x64>
    2e9a:	ff 3a       	cpi	r31, 0xAF	; 175
    2e9c:	38 f4       	brcc	.+14     	; 0x2eac <pow+0x70>
    2e9e:	9f 77       	andi	r25, 0x7F	; 127
    2ea0:	9f 93       	push	r25
    2ea2:	0c d0       	rcall	.+24     	; 0x2ebc <pow+0x80>
    2ea4:	0f 90       	pop	r0
    2ea6:	07 fc       	sbrc	r0, 7
    2ea8:	90 58       	subi	r25, 0x80	; 128
    2eaa:	08 95       	ret
    2eac:	3e f0       	brts	.+14     	; 0x2ebc <pow+0x80>
    2eae:	a2 c0       	rjmp	.+324    	; 0x2ff4 <__fp_nan>
    2eb0:	60 e0       	ldi	r22, 0x00	; 0
    2eb2:	70 e0       	ldi	r23, 0x00	; 0
    2eb4:	80 e8       	ldi	r24, 0x80	; 128
    2eb6:	9f e3       	ldi	r25, 0x3F	; 63
    2eb8:	08 95       	ret
    2eba:	4f e7       	ldi	r20, 0x7F	; 127
    2ebc:	9f 77       	andi	r25, 0x7F	; 127
    2ebe:	5f 93       	push	r21
    2ec0:	4f 93       	push	r20
    2ec2:	3f 93       	push	r19
    2ec4:	2f 93       	push	r18
    2ec6:	29 d1       	rcall	.+594    	; 0x311a <log>
    2ec8:	2f 91       	pop	r18
    2eca:	3f 91       	pop	r19
    2ecc:	4f 91       	pop	r20
    2ece:	5f 91       	pop	r21
    2ed0:	b7 d9       	rcall	.-3218   	; 0x2240 <__mulsf3>
    2ed2:	35 c0       	rjmp	.+106    	; 0x2f3e <exp>

00002ed4 <round>:
    2ed4:	bf d0       	rcall	.+382    	; 0x3054 <__fp_splitA>
    2ed6:	e0 f0       	brcs	.+56     	; 0x2f10 <round+0x3c>
    2ed8:	9e 37       	cpi	r25, 0x7E	; 126
    2eda:	d8 f0       	brcs	.+54     	; 0x2f12 <round+0x3e>
    2edc:	96 39       	cpi	r25, 0x96	; 150
    2ede:	b8 f4       	brcc	.+46     	; 0x2f0e <round+0x3a>
    2ee0:	9e 38       	cpi	r25, 0x8E	; 142
    2ee2:	48 f4       	brcc	.+18     	; 0x2ef6 <round+0x22>
    2ee4:	67 2f       	mov	r22, r23
    2ee6:	78 2f       	mov	r23, r24
    2ee8:	88 27       	eor	r24, r24
    2eea:	98 5f       	subi	r25, 0xF8	; 248
    2eec:	f9 cf       	rjmp	.-14     	; 0x2ee0 <round+0xc>
    2eee:	86 95       	lsr	r24
    2ef0:	77 95       	ror	r23
    2ef2:	67 95       	ror	r22
    2ef4:	93 95       	inc	r25
    2ef6:	95 39       	cpi	r25, 0x95	; 149
    2ef8:	d0 f3       	brcs	.-12     	; 0x2eee <round+0x1a>
    2efa:	b6 2f       	mov	r27, r22
    2efc:	b1 70       	andi	r27, 0x01	; 1
    2efe:	6b 0f       	add	r22, r27
    2f00:	71 1d       	adc	r23, r1
    2f02:	81 1d       	adc	r24, r1
    2f04:	20 f4       	brcc	.+8      	; 0x2f0e <round+0x3a>
    2f06:	87 95       	ror	r24
    2f08:	77 95       	ror	r23
    2f0a:	67 95       	ror	r22
    2f0c:	93 95       	inc	r25
    2f0e:	49 c0       	rjmp	.+146    	; 0x2fa2 <__fp_mintl>
    2f10:	63 c0       	rjmp	.+198    	; 0x2fd8 <__fp_mpack>
    2f12:	bb c0       	rjmp	.+374    	; 0x308a <__fp_szero>

00002f14 <strrev>:
    2f14:	dc 01       	movw	r26, r24
    2f16:	fc 01       	movw	r30, r24
    2f18:	67 2f       	mov	r22, r23
    2f1a:	71 91       	ld	r23, Z+
    2f1c:	77 23       	and	r23, r23
    2f1e:	e1 f7       	brne	.-8      	; 0x2f18 <strrev+0x4>
    2f20:	32 97       	sbiw	r30, 0x02	; 2
    2f22:	04 c0       	rjmp	.+8      	; 0x2f2c <strrev+0x18>
    2f24:	7c 91       	ld	r23, X
    2f26:	6d 93       	st	X+, r22
    2f28:	70 83       	st	Z, r23
    2f2a:	62 91       	ld	r22, -Z
    2f2c:	ae 17       	cp	r26, r30
    2f2e:	bf 07       	cpc	r27, r31
    2f30:	c8 f3       	brcs	.-14     	; 0x2f24 <strrev+0x10>
    2f32:	08 95       	ret
    2f34:	19 f4       	brne	.+6      	; 0x2f3c <strrev+0x28>
    2f36:	0e f0       	brts	.+2      	; 0x2f3a <strrev+0x26>
    2f38:	2e c0       	rjmp	.+92     	; 0x2f96 <__fp_inf>
    2f3a:	a6 c0       	rjmp	.+332    	; 0x3088 <__fp_zero>
    2f3c:	5b c0       	rjmp	.+182    	; 0x2ff4 <__fp_nan>

00002f3e <exp>:
    2f3e:	8a d0       	rcall	.+276    	; 0x3054 <__fp_splitA>
    2f40:	c8 f3       	brcs	.-14     	; 0x2f34 <strrev+0x20>
    2f42:	96 38       	cpi	r25, 0x86	; 134
    2f44:	c0 f7       	brcc	.-16     	; 0x2f36 <strrev+0x22>
    2f46:	07 f8       	bld	r0, 7
    2f48:	0f 92       	push	r0
    2f4a:	e8 94       	clt
    2f4c:	2b e3       	ldi	r18, 0x3B	; 59
    2f4e:	3a ea       	ldi	r19, 0xAA	; 170
    2f50:	48 eb       	ldi	r20, 0xB8	; 184
    2f52:	5f e7       	ldi	r21, 0x7F	; 127
    2f54:	61 d1       	rcall	.+706    	; 0x3218 <__mulsf3_pse>
    2f56:	0f 92       	push	r0
    2f58:	0f 92       	push	r0
    2f5a:	0f 92       	push	r0
    2f5c:	4d b7       	in	r20, 0x3d	; 61
    2f5e:	5e b7       	in	r21, 0x3e	; 62
    2f60:	0f 92       	push	r0
    2f62:	1b d1       	rcall	.+566    	; 0x319a <modf>
    2f64:	e4 e5       	ldi	r30, 0x54	; 84
    2f66:	f0 e0       	ldi	r31, 0x00	; 0
    2f68:	48 d0       	rcall	.+144    	; 0x2ffa <__fp_powser>
    2f6a:	4f 91       	pop	r20
    2f6c:	5f 91       	pop	r21
    2f6e:	ef 91       	pop	r30
    2f70:	ff 91       	pop	r31
    2f72:	e5 95       	asr	r30
    2f74:	ee 1f       	adc	r30, r30
    2f76:	ff 1f       	adc	r31, r31
    2f78:	49 f0       	breq	.+18     	; 0x2f8c <exp+0x4e>
    2f7a:	fe 57       	subi	r31, 0x7E	; 126
    2f7c:	e0 68       	ori	r30, 0x80	; 128
    2f7e:	44 27       	eor	r20, r20
    2f80:	ee 0f       	add	r30, r30
    2f82:	44 1f       	adc	r20, r20
    2f84:	fa 95       	dec	r31
    2f86:	e1 f7       	brne	.-8      	; 0x2f80 <exp+0x42>
    2f88:	41 95       	neg	r20
    2f8a:	55 0b       	sbc	r21, r21
    2f8c:	8d d0       	rcall	.+282    	; 0x30a8 <ldexp>
    2f8e:	0f 90       	pop	r0
    2f90:	07 fe       	sbrs	r0, 7
    2f92:	81 c0       	rjmp	.+258    	; 0x3096 <inverse>
    2f94:	08 95       	ret

00002f96 <__fp_inf>:
    2f96:	97 f9       	bld	r25, 7
    2f98:	9f 67       	ori	r25, 0x7F	; 127
    2f9a:	80 e8       	ldi	r24, 0x80	; 128
    2f9c:	70 e0       	ldi	r23, 0x00	; 0
    2f9e:	60 e0       	ldi	r22, 0x00	; 0
    2fa0:	08 95       	ret

00002fa2 <__fp_mintl>:
    2fa2:	88 23       	and	r24, r24
    2fa4:	71 f4       	brne	.+28     	; 0x2fc2 <__fp_mintl+0x20>
    2fa6:	77 23       	and	r23, r23
    2fa8:	21 f0       	breq	.+8      	; 0x2fb2 <__fp_mintl+0x10>
    2faa:	98 50       	subi	r25, 0x08	; 8
    2fac:	87 2b       	or	r24, r23
    2fae:	76 2f       	mov	r23, r22
    2fb0:	07 c0       	rjmp	.+14     	; 0x2fc0 <__fp_mintl+0x1e>
    2fb2:	66 23       	and	r22, r22
    2fb4:	11 f4       	brne	.+4      	; 0x2fba <__fp_mintl+0x18>
    2fb6:	99 27       	eor	r25, r25
    2fb8:	0d c0       	rjmp	.+26     	; 0x2fd4 <__fp_mintl+0x32>
    2fba:	90 51       	subi	r25, 0x10	; 16
    2fbc:	86 2b       	or	r24, r22
    2fbe:	70 e0       	ldi	r23, 0x00	; 0
    2fc0:	60 e0       	ldi	r22, 0x00	; 0
    2fc2:	2a f0       	brmi	.+10     	; 0x2fce <__fp_mintl+0x2c>
    2fc4:	9a 95       	dec	r25
    2fc6:	66 0f       	add	r22, r22
    2fc8:	77 1f       	adc	r23, r23
    2fca:	88 1f       	adc	r24, r24
    2fcc:	da f7       	brpl	.-10     	; 0x2fc4 <__fp_mintl+0x22>
    2fce:	88 0f       	add	r24, r24
    2fd0:	96 95       	lsr	r25
    2fd2:	87 95       	ror	r24
    2fd4:	97 f9       	bld	r25, 7
    2fd6:	08 95       	ret

00002fd8 <__fp_mpack>:
    2fd8:	9f 3f       	cpi	r25, 0xFF	; 255
    2fda:	31 f0       	breq	.+12     	; 0x2fe8 <__fp_mpack_finite+0xc>

00002fdc <__fp_mpack_finite>:
    2fdc:	91 50       	subi	r25, 0x01	; 1
    2fde:	20 f4       	brcc	.+8      	; 0x2fe8 <__fp_mpack_finite+0xc>
    2fe0:	87 95       	ror	r24
    2fe2:	77 95       	ror	r23
    2fe4:	67 95       	ror	r22
    2fe6:	b7 95       	ror	r27
    2fe8:	88 0f       	add	r24, r24
    2fea:	91 1d       	adc	r25, r1
    2fec:	96 95       	lsr	r25
    2fee:	87 95       	ror	r24
    2ff0:	97 f9       	bld	r25, 7
    2ff2:	08 95       	ret

00002ff4 <__fp_nan>:
    2ff4:	9f ef       	ldi	r25, 0xFF	; 255
    2ff6:	80 ec       	ldi	r24, 0xC0	; 192
    2ff8:	08 95       	ret

00002ffa <__fp_powser>:
    2ffa:	df 93       	push	r29
    2ffc:	cf 93       	push	r28
    2ffe:	1f 93       	push	r17
    3000:	0f 93       	push	r16
    3002:	ff 92       	push	r15
    3004:	ef 92       	push	r14
    3006:	df 92       	push	r13
    3008:	7b 01       	movw	r14, r22
    300a:	8c 01       	movw	r16, r24
    300c:	68 94       	set
    300e:	05 c0       	rjmp	.+10     	; 0x301a <__fp_powser+0x20>
    3010:	da 2e       	mov	r13, r26
    3012:	ef 01       	movw	r28, r30
    3014:	ff d0       	rcall	.+510    	; 0x3214 <__mulsf3x>
    3016:	fe 01       	movw	r30, r28
    3018:	e8 94       	clt
    301a:	a5 91       	lpm	r26, Z+
    301c:	25 91       	lpm	r18, Z+
    301e:	35 91       	lpm	r19, Z+
    3020:	45 91       	lpm	r20, Z+
    3022:	55 91       	lpm	r21, Z+
    3024:	ae f3       	brts	.-22     	; 0x3010 <__fp_powser+0x16>
    3026:	ef 01       	movw	r28, r30
    3028:	59 d1       	rcall	.+690    	; 0x32dc <__addsf3x>
    302a:	fe 01       	movw	r30, r28
    302c:	97 01       	movw	r18, r14
    302e:	a8 01       	movw	r20, r16
    3030:	da 94       	dec	r13
    3032:	79 f7       	brne	.-34     	; 0x3012 <__fp_powser+0x18>
    3034:	df 90       	pop	r13
    3036:	ef 90       	pop	r14
    3038:	ff 90       	pop	r15
    303a:	0f 91       	pop	r16
    303c:	1f 91       	pop	r17
    303e:	cf 91       	pop	r28
    3040:	df 91       	pop	r29
    3042:	08 95       	ret

00003044 <__fp_split3>:
    3044:	57 fd       	sbrc	r21, 7
    3046:	90 58       	subi	r25, 0x80	; 128
    3048:	44 0f       	add	r20, r20
    304a:	55 1f       	adc	r21, r21
    304c:	59 f0       	breq	.+22     	; 0x3064 <__fp_splitA+0x10>
    304e:	5f 3f       	cpi	r21, 0xFF	; 255
    3050:	71 f0       	breq	.+28     	; 0x306e <__fp_splitA+0x1a>
    3052:	47 95       	ror	r20

00003054 <__fp_splitA>:
    3054:	88 0f       	add	r24, r24
    3056:	97 fb       	bst	r25, 7
    3058:	99 1f       	adc	r25, r25
    305a:	61 f0       	breq	.+24     	; 0x3074 <__fp_splitA+0x20>
    305c:	9f 3f       	cpi	r25, 0xFF	; 255
    305e:	79 f0       	breq	.+30     	; 0x307e <__fp_splitA+0x2a>
    3060:	87 95       	ror	r24
    3062:	08 95       	ret
    3064:	12 16       	cp	r1, r18
    3066:	13 06       	cpc	r1, r19
    3068:	14 06       	cpc	r1, r20
    306a:	55 1f       	adc	r21, r21
    306c:	f2 cf       	rjmp	.-28     	; 0x3052 <__fp_split3+0xe>
    306e:	46 95       	lsr	r20
    3070:	f1 df       	rcall	.-30     	; 0x3054 <__fp_splitA>
    3072:	08 c0       	rjmp	.+16     	; 0x3084 <__fp_splitA+0x30>
    3074:	16 16       	cp	r1, r22
    3076:	17 06       	cpc	r1, r23
    3078:	18 06       	cpc	r1, r24
    307a:	99 1f       	adc	r25, r25
    307c:	f1 cf       	rjmp	.-30     	; 0x3060 <__fp_splitA+0xc>
    307e:	86 95       	lsr	r24
    3080:	71 05       	cpc	r23, r1
    3082:	61 05       	cpc	r22, r1
    3084:	08 94       	sec
    3086:	08 95       	ret

00003088 <__fp_zero>:
    3088:	e8 94       	clt

0000308a <__fp_szero>:
    308a:	bb 27       	eor	r27, r27
    308c:	66 27       	eor	r22, r22
    308e:	77 27       	eor	r23, r23
    3090:	cb 01       	movw	r24, r22
    3092:	97 f9       	bld	r25, 7
    3094:	08 95       	ret

00003096 <inverse>:
    3096:	9b 01       	movw	r18, r22
    3098:	ac 01       	movw	r20, r24
    309a:	60 e0       	ldi	r22, 0x00	; 0
    309c:	70 e0       	ldi	r23, 0x00	; 0
    309e:	80 e8       	ldi	r24, 0x80	; 128
    30a0:	9f e3       	ldi	r25, 0x3F	; 63
    30a2:	c8 c9       	rjmp	.-3184   	; 0x2434 <__divsf3>
    30a4:	78 cf       	rjmp	.-272    	; 0x2f96 <__fp_inf>
    30a6:	98 cf       	rjmp	.-208    	; 0x2fd8 <__fp_mpack>

000030a8 <ldexp>:
    30a8:	d5 df       	rcall	.-86     	; 0x3054 <__fp_splitA>
    30aa:	e8 f3       	brcs	.-6      	; 0x30a6 <inverse+0x10>
    30ac:	99 23       	and	r25, r25
    30ae:	d9 f3       	breq	.-10     	; 0x30a6 <inverse+0x10>
    30b0:	94 0f       	add	r25, r20
    30b2:	51 1d       	adc	r21, r1
    30b4:	bb f3       	brvs	.-18     	; 0x30a4 <inverse+0xe>
    30b6:	91 50       	subi	r25, 0x01	; 1
    30b8:	50 40       	sbci	r21, 0x00	; 0
    30ba:	94 f0       	brlt	.+36     	; 0x30e0 <ldexp+0x38>
    30bc:	59 f0       	breq	.+22     	; 0x30d4 <ldexp+0x2c>
    30be:	88 23       	and	r24, r24
    30c0:	32 f0       	brmi	.+12     	; 0x30ce <ldexp+0x26>
    30c2:	66 0f       	add	r22, r22
    30c4:	77 1f       	adc	r23, r23
    30c6:	88 1f       	adc	r24, r24
    30c8:	91 50       	subi	r25, 0x01	; 1
    30ca:	50 40       	sbci	r21, 0x00	; 0
    30cc:	c1 f7       	brne	.-16     	; 0x30be <ldexp+0x16>
    30ce:	9e 3f       	cpi	r25, 0xFE	; 254
    30d0:	51 05       	cpc	r21, r1
    30d2:	44 f7       	brge	.-48     	; 0x30a4 <inverse+0xe>
    30d4:	88 0f       	add	r24, r24
    30d6:	91 1d       	adc	r25, r1
    30d8:	96 95       	lsr	r25
    30da:	87 95       	ror	r24
    30dc:	97 f9       	bld	r25, 7
    30de:	08 95       	ret
    30e0:	5f 3f       	cpi	r21, 0xFF	; 255
    30e2:	ac f0       	brlt	.+42     	; 0x310e <ldexp+0x66>
    30e4:	98 3e       	cpi	r25, 0xE8	; 232
    30e6:	9c f0       	brlt	.+38     	; 0x310e <ldexp+0x66>
    30e8:	bb 27       	eor	r27, r27
    30ea:	86 95       	lsr	r24
    30ec:	77 95       	ror	r23
    30ee:	67 95       	ror	r22
    30f0:	b7 95       	ror	r27
    30f2:	08 f4       	brcc	.+2      	; 0x30f6 <ldexp+0x4e>
    30f4:	b1 60       	ori	r27, 0x01	; 1
    30f6:	93 95       	inc	r25
    30f8:	c1 f7       	brne	.-16     	; 0x30ea <ldexp+0x42>
    30fa:	bb 0f       	add	r27, r27
    30fc:	58 f7       	brcc	.-42     	; 0x30d4 <ldexp+0x2c>
    30fe:	11 f4       	brne	.+4      	; 0x3104 <ldexp+0x5c>
    3100:	60 ff       	sbrs	r22, 0
    3102:	e8 cf       	rjmp	.-48     	; 0x30d4 <ldexp+0x2c>
    3104:	6f 5f       	subi	r22, 0xFF	; 255
    3106:	7f 4f       	sbci	r23, 0xFF	; 255
    3108:	8f 4f       	sbci	r24, 0xFF	; 255
    310a:	9f 4f       	sbci	r25, 0xFF	; 255
    310c:	e3 cf       	rjmp	.-58     	; 0x30d4 <ldexp+0x2c>
    310e:	bd cf       	rjmp	.-134    	; 0x308a <__fp_szero>
    3110:	0e f0       	brts	.+2      	; 0x3114 <ldexp+0x6c>
    3112:	62 cf       	rjmp	.-316    	; 0x2fd8 <__fp_mpack>
    3114:	6f cf       	rjmp	.-290    	; 0x2ff4 <__fp_nan>
    3116:	68 94       	set
    3118:	3e cf       	rjmp	.-388    	; 0x2f96 <__fp_inf>

0000311a <log>:
    311a:	9c df       	rcall	.-200    	; 0x3054 <__fp_splitA>
    311c:	c8 f3       	brcs	.-14     	; 0x3110 <ldexp+0x68>
    311e:	99 23       	and	r25, r25
    3120:	d1 f3       	breq	.-12     	; 0x3116 <ldexp+0x6e>
    3122:	c6 f3       	brts	.-16     	; 0x3114 <ldexp+0x6c>
    3124:	df 93       	push	r29
    3126:	cf 93       	push	r28
    3128:	1f 93       	push	r17
    312a:	0f 93       	push	r16
    312c:	ff 92       	push	r15
    312e:	c9 2f       	mov	r28, r25
    3130:	dd 27       	eor	r29, r29
    3132:	88 23       	and	r24, r24
    3134:	2a f0       	brmi	.+10     	; 0x3140 <log+0x26>
    3136:	21 97       	sbiw	r28, 0x01	; 1
    3138:	66 0f       	add	r22, r22
    313a:	77 1f       	adc	r23, r23
    313c:	88 1f       	adc	r24, r24
    313e:	da f7       	brpl	.-10     	; 0x3136 <log+0x1c>
    3140:	20 e0       	ldi	r18, 0x00	; 0
    3142:	30 e0       	ldi	r19, 0x00	; 0
    3144:	40 e8       	ldi	r20, 0x80	; 128
    3146:	5f eb       	ldi	r21, 0xBF	; 191
    3148:	9f e3       	ldi	r25, 0x3F	; 63
    314a:	88 39       	cpi	r24, 0x98	; 152
    314c:	20 f0       	brcs	.+8      	; 0x3156 <log+0x3c>
    314e:	80 3e       	cpi	r24, 0xE0	; 224
    3150:	30 f0       	brcs	.+12     	; 0x315e <log+0x44>
    3152:	21 96       	adiw	r28, 0x01	; 1
    3154:	8f 77       	andi	r24, 0x7F	; 127
    3156:	16 d8       	rcall	.-4052   	; 0x2184 <__addsf3>
    3158:	ec e7       	ldi	r30, 0x7C	; 124
    315a:	f0 e0       	ldi	r31, 0x00	; 0
    315c:	03 c0       	rjmp	.+6      	; 0x3164 <log+0x4a>
    315e:	12 d8       	rcall	.-4060   	; 0x2184 <__addsf3>
    3160:	e9 ea       	ldi	r30, 0xA9	; 169
    3162:	f0 e0       	ldi	r31, 0x00	; 0
    3164:	4a df       	rcall	.-364    	; 0x2ffa <__fp_powser>
    3166:	8b 01       	movw	r16, r22
    3168:	be 01       	movw	r22, r28
    316a:	ec 01       	movw	r28, r24
    316c:	fb 2e       	mov	r15, r27
    316e:	6f 57       	subi	r22, 0x7F	; 127
    3170:	71 09       	sbc	r23, r1
    3172:	75 95       	asr	r23
    3174:	77 1f       	adc	r23, r23
    3176:	88 0b       	sbc	r24, r24
    3178:	99 0b       	sbc	r25, r25
    317a:	3a da       	rcall	.-2956   	; 0x25f0 <__floatsisf>
    317c:	28 e1       	ldi	r18, 0x18	; 24
    317e:	32 e7       	ldi	r19, 0x72	; 114
    3180:	41 e3       	ldi	r20, 0x31	; 49
    3182:	5f e3       	ldi	r21, 0x3F	; 63
    3184:	47 d0       	rcall	.+142    	; 0x3214 <__mulsf3x>
    3186:	af 2d       	mov	r26, r15
    3188:	98 01       	movw	r18, r16
    318a:	ae 01       	movw	r20, r28
    318c:	ff 90       	pop	r15
    318e:	0f 91       	pop	r16
    3190:	1f 91       	pop	r17
    3192:	cf 91       	pop	r28
    3194:	df 91       	pop	r29
    3196:	a2 d0       	rcall	.+324    	; 0x32dc <__addsf3x>
    3198:	02 c1       	rjmp	.+516    	; 0x339e <__fp_round>

0000319a <modf>:
    319a:	fa 01       	movw	r30, r20
    319c:	dc 01       	movw	r26, r24
    319e:	aa 0f       	add	r26, r26
    31a0:	bb 1f       	adc	r27, r27
    31a2:	9b 01       	movw	r18, r22
    31a4:	ac 01       	movw	r20, r24
    31a6:	bf 57       	subi	r27, 0x7F	; 127
    31a8:	28 f4       	brcc	.+10     	; 0x31b4 <modf+0x1a>
    31aa:	22 27       	eor	r18, r18
    31ac:	33 27       	eor	r19, r19
    31ae:	44 27       	eor	r20, r20
    31b0:	50 78       	andi	r21, 0x80	; 128
    31b2:	1f c0       	rjmp	.+62     	; 0x31f2 <modf+0x58>
    31b4:	b7 51       	subi	r27, 0x17	; 23
    31b6:	88 f4       	brcc	.+34     	; 0x31da <modf+0x40>
    31b8:	ab 2f       	mov	r26, r27
    31ba:	00 24       	eor	r0, r0
    31bc:	46 95       	lsr	r20
    31be:	37 95       	ror	r19
    31c0:	27 95       	ror	r18
    31c2:	01 1c       	adc	r0, r1
    31c4:	a3 95       	inc	r26
    31c6:	d2 f3       	brmi	.-12     	; 0x31bc <modf+0x22>
    31c8:	00 20       	and	r0, r0
    31ca:	69 f0       	breq	.+26     	; 0x31e6 <modf+0x4c>
    31cc:	22 0f       	add	r18, r18
    31ce:	33 1f       	adc	r19, r19
    31d0:	44 1f       	adc	r20, r20
    31d2:	b3 95       	inc	r27
    31d4:	da f3       	brmi	.-10     	; 0x31cc <modf+0x32>
    31d6:	0d d0       	rcall	.+26     	; 0x31f2 <modf+0x58>
    31d8:	02 c8       	rjmp	.-4092   	; 0x21de <__subsf3>
    31da:	61 30       	cpi	r22, 0x01	; 1
    31dc:	71 05       	cpc	r23, r1
    31de:	a0 e8       	ldi	r26, 0x80	; 128
    31e0:	8a 07       	cpc	r24, r26
    31e2:	b9 46       	sbci	r27, 0x69	; 105
    31e4:	30 f4       	brcc	.+12     	; 0x31f2 <modf+0x58>
    31e6:	9b 01       	movw	r18, r22
    31e8:	ac 01       	movw	r20, r24
    31ea:	66 27       	eor	r22, r22
    31ec:	77 27       	eor	r23, r23
    31ee:	88 27       	eor	r24, r24
    31f0:	90 78       	andi	r25, 0x80	; 128
    31f2:	30 96       	adiw	r30, 0x00	; 0
    31f4:	21 f0       	breq	.+8      	; 0x31fe <modf+0x64>
    31f6:	20 83       	st	Z, r18
    31f8:	31 83       	std	Z+1, r19	; 0x01
    31fa:	42 83       	std	Z+2, r20	; 0x02
    31fc:	53 83       	std	Z+3, r21	; 0x03
    31fe:	08 95       	ret
    3200:	c0 d0       	rcall	.+384    	; 0x3382 <__fp_pscA>
    3202:	28 f0       	brcs	.+10     	; 0x320e <modf+0x74>
    3204:	c5 d0       	rcall	.+394    	; 0x3390 <__fp_pscB>
    3206:	18 f0       	brcs	.+6      	; 0x320e <modf+0x74>
    3208:	95 23       	and	r25, r21
    320a:	09 f0       	breq	.+2      	; 0x320e <modf+0x74>
    320c:	c4 ce       	rjmp	.-632    	; 0x2f96 <__fp_inf>
    320e:	f2 ce       	rjmp	.-540    	; 0x2ff4 <__fp_nan>
    3210:	11 24       	eor	r1, r1
    3212:	3b cf       	rjmp	.-394    	; 0x308a <__fp_szero>

00003214 <__mulsf3x>:
    3214:	17 df       	rcall	.-466    	; 0x3044 <__fp_split3>
    3216:	a0 f3       	brcs	.-24     	; 0x3200 <modf+0x66>

00003218 <__mulsf3_pse>:
    3218:	95 9f       	mul	r25, r21
    321a:	d1 f3       	breq	.-12     	; 0x3210 <modf+0x76>
    321c:	95 0f       	add	r25, r21
    321e:	50 e0       	ldi	r21, 0x00	; 0
    3220:	55 1f       	adc	r21, r21
    3222:	62 9f       	mul	r22, r18
    3224:	f0 01       	movw	r30, r0
    3226:	72 9f       	mul	r23, r18
    3228:	bb 27       	eor	r27, r27
    322a:	f0 0d       	add	r31, r0
    322c:	b1 1d       	adc	r27, r1
    322e:	63 9f       	mul	r22, r19
    3230:	aa 27       	eor	r26, r26
    3232:	f0 0d       	add	r31, r0
    3234:	b1 1d       	adc	r27, r1
    3236:	aa 1f       	adc	r26, r26
    3238:	64 9f       	mul	r22, r20
    323a:	66 27       	eor	r22, r22
    323c:	b0 0d       	add	r27, r0
    323e:	a1 1d       	adc	r26, r1
    3240:	66 1f       	adc	r22, r22
    3242:	82 9f       	mul	r24, r18
    3244:	22 27       	eor	r18, r18
    3246:	b0 0d       	add	r27, r0
    3248:	a1 1d       	adc	r26, r1
    324a:	62 1f       	adc	r22, r18
    324c:	73 9f       	mul	r23, r19
    324e:	b0 0d       	add	r27, r0
    3250:	a1 1d       	adc	r26, r1
    3252:	62 1f       	adc	r22, r18
    3254:	83 9f       	mul	r24, r19
    3256:	a0 0d       	add	r26, r0
    3258:	61 1d       	adc	r22, r1
    325a:	22 1f       	adc	r18, r18
    325c:	74 9f       	mul	r23, r20
    325e:	33 27       	eor	r19, r19
    3260:	a0 0d       	add	r26, r0
    3262:	61 1d       	adc	r22, r1
    3264:	23 1f       	adc	r18, r19
    3266:	84 9f       	mul	r24, r20
    3268:	60 0d       	add	r22, r0
    326a:	21 1d       	adc	r18, r1
    326c:	82 2f       	mov	r24, r18
    326e:	76 2f       	mov	r23, r22
    3270:	6a 2f       	mov	r22, r26
    3272:	11 24       	eor	r1, r1
    3274:	9f 57       	subi	r25, 0x7F	; 127
    3276:	50 40       	sbci	r21, 0x00	; 0
    3278:	8a f0       	brmi	.+34     	; 0x329c <__mulsf3_pse+0x84>
    327a:	e1 f0       	breq	.+56     	; 0x32b4 <__mulsf3_pse+0x9c>
    327c:	88 23       	and	r24, r24
    327e:	4a f0       	brmi	.+18     	; 0x3292 <__mulsf3_pse+0x7a>
    3280:	ee 0f       	add	r30, r30
    3282:	ff 1f       	adc	r31, r31
    3284:	bb 1f       	adc	r27, r27
    3286:	66 1f       	adc	r22, r22
    3288:	77 1f       	adc	r23, r23
    328a:	88 1f       	adc	r24, r24
    328c:	91 50       	subi	r25, 0x01	; 1
    328e:	50 40       	sbci	r21, 0x00	; 0
    3290:	a9 f7       	brne	.-22     	; 0x327c <__mulsf3_pse+0x64>
    3292:	9e 3f       	cpi	r25, 0xFE	; 254
    3294:	51 05       	cpc	r21, r1
    3296:	70 f0       	brcs	.+28     	; 0x32b4 <__mulsf3_pse+0x9c>
    3298:	7e ce       	rjmp	.-772    	; 0x2f96 <__fp_inf>
    329a:	f7 ce       	rjmp	.-530    	; 0x308a <__fp_szero>
    329c:	5f 3f       	cpi	r21, 0xFF	; 255
    329e:	ec f3       	brlt	.-6      	; 0x329a <__mulsf3_pse+0x82>
    32a0:	98 3e       	cpi	r25, 0xE8	; 232
    32a2:	dc f3       	brlt	.-10     	; 0x329a <__mulsf3_pse+0x82>
    32a4:	86 95       	lsr	r24
    32a6:	77 95       	ror	r23
    32a8:	67 95       	ror	r22
    32aa:	b7 95       	ror	r27
    32ac:	f7 95       	ror	r31
    32ae:	e7 95       	ror	r30
    32b0:	9f 5f       	subi	r25, 0xFF	; 255
    32b2:	c1 f7       	brne	.-16     	; 0x32a4 <__mulsf3_pse+0x8c>
    32b4:	fe 2b       	or	r31, r30
    32b6:	88 0f       	add	r24, r24
    32b8:	91 1d       	adc	r25, r1
    32ba:	96 95       	lsr	r25
    32bc:	87 95       	ror	r24
    32be:	97 f9       	bld	r25, 7
    32c0:	08 95       	ret
    32c2:	5f d0       	rcall	.+190    	; 0x3382 <__fp_pscA>
    32c4:	30 f0       	brcs	.+12     	; 0x32d2 <__mulsf3_pse+0xba>
    32c6:	64 d0       	rcall	.+200    	; 0x3390 <__fp_pscB>
    32c8:	20 f0       	brcs	.+8      	; 0x32d2 <__mulsf3_pse+0xba>
    32ca:	31 f4       	brne	.+12     	; 0x32d8 <__mulsf3_pse+0xc0>
    32cc:	9f 3f       	cpi	r25, 0xFF	; 255
    32ce:	11 f4       	brne	.+4      	; 0x32d4 <__mulsf3_pse+0xbc>
    32d0:	1e f4       	brtc	.+6      	; 0x32d8 <__mulsf3_pse+0xc0>
    32d2:	90 ce       	rjmp	.-736    	; 0x2ff4 <__fp_nan>
    32d4:	0e f4       	brtc	.+2      	; 0x32d8 <__mulsf3_pse+0xc0>
    32d6:	e0 95       	com	r30
    32d8:	e7 fb       	bst	r30, 7
    32da:	5d ce       	rjmp	.-838    	; 0x2f96 <__fp_inf>

000032dc <__addsf3x>:
    32dc:	e9 2f       	mov	r30, r25
    32de:	b2 de       	rcall	.-668    	; 0x3044 <__fp_split3>
    32e0:	80 f3       	brcs	.-32     	; 0x32c2 <__mulsf3_pse+0xaa>
    32e2:	ba 17       	cp	r27, r26
    32e4:	62 07       	cpc	r22, r18
    32e6:	73 07       	cpc	r23, r19
    32e8:	84 07       	cpc	r24, r20
    32ea:	95 07       	cpc	r25, r21
    32ec:	18 f0       	brcs	.+6      	; 0x32f4 <__addsf3x+0x18>
    32ee:	71 f4       	brne	.+28     	; 0x330c <__addsf3x+0x30>
    32f0:	9e f5       	brtc	.+102    	; 0x3358 <__addsf3x+0x7c>
    32f2:	ca ce       	rjmp	.-620    	; 0x3088 <__fp_zero>
    32f4:	0e f4       	brtc	.+2      	; 0x32f8 <__addsf3x+0x1c>
    32f6:	e0 95       	com	r30
    32f8:	0b 2e       	mov	r0, r27
    32fa:	ba 2f       	mov	r27, r26
    32fc:	a0 2d       	mov	r26, r0
    32fe:	0b 01       	movw	r0, r22
    3300:	b9 01       	movw	r22, r18
    3302:	90 01       	movw	r18, r0
    3304:	0c 01       	movw	r0, r24
    3306:	ca 01       	movw	r24, r20
    3308:	a0 01       	movw	r20, r0
    330a:	11 24       	eor	r1, r1
    330c:	ff 27       	eor	r31, r31
    330e:	59 1b       	sub	r21, r25
    3310:	99 f0       	breq	.+38     	; 0x3338 <__addsf3x+0x5c>
    3312:	59 3f       	cpi	r21, 0xF9	; 249
    3314:	50 f4       	brcc	.+20     	; 0x332a <__addsf3x+0x4e>
    3316:	50 3e       	cpi	r21, 0xE0	; 224
    3318:	68 f1       	brcs	.+90     	; 0x3374 <__addsf3x+0x98>
    331a:	1a 16       	cp	r1, r26
    331c:	f0 40       	sbci	r31, 0x00	; 0
    331e:	a2 2f       	mov	r26, r18
    3320:	23 2f       	mov	r18, r19
    3322:	34 2f       	mov	r19, r20
    3324:	44 27       	eor	r20, r20
    3326:	58 5f       	subi	r21, 0xF8	; 248
    3328:	f3 cf       	rjmp	.-26     	; 0x3310 <__addsf3x+0x34>
    332a:	46 95       	lsr	r20
    332c:	37 95       	ror	r19
    332e:	27 95       	ror	r18
    3330:	a7 95       	ror	r26
    3332:	f0 40       	sbci	r31, 0x00	; 0
    3334:	53 95       	inc	r21
    3336:	c9 f7       	brne	.-14     	; 0x332a <__addsf3x+0x4e>
    3338:	7e f4       	brtc	.+30     	; 0x3358 <__addsf3x+0x7c>
    333a:	1f 16       	cp	r1, r31
    333c:	ba 0b       	sbc	r27, r26
    333e:	62 0b       	sbc	r22, r18
    3340:	73 0b       	sbc	r23, r19
    3342:	84 0b       	sbc	r24, r20
    3344:	ba f0       	brmi	.+46     	; 0x3374 <__addsf3x+0x98>
    3346:	91 50       	subi	r25, 0x01	; 1
    3348:	a1 f0       	breq	.+40     	; 0x3372 <__addsf3x+0x96>
    334a:	ff 0f       	add	r31, r31
    334c:	bb 1f       	adc	r27, r27
    334e:	66 1f       	adc	r22, r22
    3350:	77 1f       	adc	r23, r23
    3352:	88 1f       	adc	r24, r24
    3354:	c2 f7       	brpl	.-16     	; 0x3346 <__addsf3x+0x6a>
    3356:	0e c0       	rjmp	.+28     	; 0x3374 <__addsf3x+0x98>
    3358:	ba 0f       	add	r27, r26
    335a:	62 1f       	adc	r22, r18
    335c:	73 1f       	adc	r23, r19
    335e:	84 1f       	adc	r24, r20
    3360:	48 f4       	brcc	.+18     	; 0x3374 <__addsf3x+0x98>
    3362:	87 95       	ror	r24
    3364:	77 95       	ror	r23
    3366:	67 95       	ror	r22
    3368:	b7 95       	ror	r27
    336a:	f7 95       	ror	r31
    336c:	9e 3f       	cpi	r25, 0xFE	; 254
    336e:	08 f0       	brcs	.+2      	; 0x3372 <__addsf3x+0x96>
    3370:	b3 cf       	rjmp	.-154    	; 0x32d8 <__mulsf3_pse+0xc0>
    3372:	93 95       	inc	r25
    3374:	88 0f       	add	r24, r24
    3376:	08 f0       	brcs	.+2      	; 0x337a <__addsf3x+0x9e>
    3378:	99 27       	eor	r25, r25
    337a:	ee 0f       	add	r30, r30
    337c:	97 95       	ror	r25
    337e:	87 95       	ror	r24
    3380:	08 95       	ret

00003382 <__fp_pscA>:
    3382:	00 24       	eor	r0, r0
    3384:	0a 94       	dec	r0
    3386:	16 16       	cp	r1, r22
    3388:	17 06       	cpc	r1, r23
    338a:	18 06       	cpc	r1, r24
    338c:	09 06       	cpc	r0, r25
    338e:	08 95       	ret

00003390 <__fp_pscB>:
    3390:	00 24       	eor	r0, r0
    3392:	0a 94       	dec	r0
    3394:	12 16       	cp	r1, r18
    3396:	13 06       	cpc	r1, r19
    3398:	14 06       	cpc	r1, r20
    339a:	05 06       	cpc	r0, r21
    339c:	08 95       	ret

0000339e <__fp_round>:
    339e:	09 2e       	mov	r0, r25
    33a0:	03 94       	inc	r0
    33a2:	00 0c       	add	r0, r0
    33a4:	11 f4       	brne	.+4      	; 0x33aa <__fp_round+0xc>
    33a6:	88 23       	and	r24, r24
    33a8:	52 f0       	brmi	.+20     	; 0x33be <__fp_round+0x20>
    33aa:	bb 0f       	add	r27, r27
    33ac:	40 f4       	brcc	.+16     	; 0x33be <__fp_round+0x20>
    33ae:	bf 2b       	or	r27, r31
    33b0:	11 f4       	brne	.+4      	; 0x33b6 <__fp_round+0x18>
    33b2:	60 ff       	sbrs	r22, 0
    33b4:	04 c0       	rjmp	.+8      	; 0x33be <__fp_round+0x20>
    33b6:	6f 5f       	subi	r22, 0xFF	; 255
    33b8:	7f 4f       	sbci	r23, 0xFF	; 255
    33ba:	8f 4f       	sbci	r24, 0xFF	; 255
    33bc:	9f 4f       	sbci	r25, 0xFF	; 255
    33be:	08 95       	ret

000033c0 <_exit>:
    33c0:	f8 94       	cli

000033c2 <__stop_program>:
    33c2:	ff cf       	rjmp	.-2      	; 0x33c2 <__stop_program>
